ARM GAS  /tmp/ccdAyFVV.s 			page 1


   1              		.syntax unified
   2              		.cpu cortex-m3
   3              		.fpu softvfp
   4              		.eabi_attribute 20, 1
   5              		.eabi_attribute 21, 1
   6              		.eabi_attribute 23, 3
   7              		.eabi_attribute 24, 1
   8              		.eabi_attribute 25, 1
   9              		.eabi_attribute 26, 1
  10              		.eabi_attribute 30, 2
  11              		.eabi_attribute 34, 1
  12              		.eabi_attribute 18, 4
  13              		.thumb
  14              		.file	"i2c.cpp"
  15              		.text
  16              	.Ltext0:
  17              		.cfi_sections	.debug_frame
  18              		.section	.text._ZN3I2C4InitEv,"ax",%progbits
  19              		.align	2
  20              		.p2align 4,,15
  21              		.global	_ZN3I2C4InitEv
  22              		.thumb
  23              		.thumb_func
  24              		.type	_ZN3I2C4InitEv, %function
  25              	_ZN3I2C4InitEv:
  26              		.fnstart
  27              	.LFB7:
  28              		.file 1 "i2c.cpp"
  29              		.loc 1 33 0
  30              		.cfi_startproc
  31              		@ args = 0, pretend = 0, frame = 0
  32              		@ frame_needed = 0, uses_anonymous_args = 0
  33              	.LVL0:
  34 0000 38B5     		push	{r3, r4, r5, lr}
  35              		.save {r3, r4, r5, lr}
  36              		.cfi_def_cfa_offset 16
  37              		.cfi_offset 3, -16
  38              		.cfi_offset 4, -12
  39              		.cfi_offset 5, -8
  40              		.cfi_offset 14, -4
  41              		.loc 1 33 0
  42 0002 0546     		mov	r5, r0
  43              	.LBB2:
  44              	.LBB3:
  45              		.loc 1 35 0
  46 0004 2023     		movs	r3, #32
  47              	@ 35 "i2c.cpp" 1
  48 0006 83F31188 		msr     BASEPRI, r3
  49              	@ 0 "" 2
  50              		.thumb
  51              	.LBE3:
  52              		.loc 1 36 0
  53 000a 0221     		movs	r1, #2
  54 000c 0D48     		ldr	r0, .L3
  55              	.LVL1:
  56 000e FFF7FEFF 		bl	PIO_Configure
  57              	.LVL2:
ARM GAS  /tmp/ccdAyFVV.s 			page 2


  58              		.loc 1 40 0
  59 0012 0D4C     		ldr	r4, .L3+4
  60              		.loc 1 37 0
  61 0014 0D4B     		ldr	r3, .L3+8
  62 0016 0E48     		ldr	r0, .L3+12
  63              		.loc 1 39 0
  64 0018 0E4A     		ldr	r2, .L3+16
  65              		.loc 1 38 0
  66 001a 4FF40021 		mov	r1, #524288
  67              		.loc 1 37 0
  68 001e C3F8E400 		str	r0, [r3, #228]
  69              		.loc 1 38 0
  70 0022 1961     		str	r1, [r3, #16]
  71              		.loc 1 40 0
  72 0024 2046     		mov	r0, r4
  73              		.loc 1 39 0
  74 0026 C3F8E420 		str	r2, [r3, #228]
  75              		.loc 1 40 0
  76 002a 0B49     		ldr	r1, .L3+20
  77 002c 0B4A     		ldr	r2, .L3+24
  78 002e FFF7FEFF 		bl	TWI_ConfigureMaster
  79              	.LVL3:
  80              		.loc 1 41 0
  81 0032 2846     		mov	r0, r5
  82 0034 2146     		mov	r1, r4
  83 0036 FFF7FEFF 		bl	TWID_Initialize
  84              	.LVL4:
  85              	.LBB4:
  86              		.loc 1 42 0
  87 003a 0023     		movs	r3, #0
  88              	@ 42 "i2c.cpp" 1
  89 003c 83F31188 		msr     BASEPRI, r3
  90              	@ 0 "" 2
  91              		.thumb
  92 0040 38BD     		pop	{r3, r4, r5, pc}
  93              	.LVL5:
  94              	.L4:
  95 0042 00BF     		.align	2
  96              	.L3:
  97 0044 00000000 		.word	.LANCHOR0
  98 0048 00800140 		.word	1073840128
  99 004c 00040E40 		.word	1074660352
 100 0050 00434D50 		.word	1347240704
 101 0054 01434D50 		.word	1347240705
 102 0058 A0860100 		.word	100000
 103 005c 0090D003 		.word	64000000
 104              	.LBE4:
 105              	.LBE2:
 106              		.cfi_endproc
 107              	.LFE7:
 108              		.fnend
 109              		.size	_ZN3I2C4InitEv, .-_ZN3I2C4InitEv
 110              		.section	.text._ZN3I2C9WriteByteEhhh,"ax",%progbits
 111              		.align	2
 112              		.p2align 4,,15
 113              		.global	_ZN3I2C9WriteByteEhhh
 114              		.thumb
ARM GAS  /tmp/ccdAyFVV.s 			page 3


 115              		.thumb_func
 116              		.type	_ZN3I2C9WriteByteEhhh, %function
 117              	_ZN3I2C9WriteByteEhhh:
 118              		.fnstart
 119              	.LFB8:
 120              		.loc 1 45 0
 121              		.cfi_startproc
 122              		@ args = 0, pretend = 0, frame = 8
 123              		@ frame_needed = 0, uses_anonymous_args = 0
 124              	.LVL6:
 125 0000 30B5     		push	{r4, r5, lr}
 126              		.save {r4, r5, lr}
 127              		.cfi_def_cfa_offset 12
 128              		.cfi_offset 4, -12
 129              		.cfi_offset 5, -8
 130              		.cfi_offset 14, -4
 131              		.pad #28
 132 0002 87B0     		sub	sp, sp, #28
 133              		.cfi_def_cfa_offset 40
 134              		.loc 1 45 0
 135 0004 06AC     		add	r4, sp, #24
 136 0006 04F8013D 		strb	r3, [r4, #-1]!
 137              	.LBB5:
 138              	.LBB6:
 139              		.loc 1 47 0
 140 000a 2023     		movs	r3, #32
 141              	.LVL7:
 142              	@ 47 "i2c.cpp" 1
 143 000c 83F31188 		msr     BASEPRI, r3
 144              	@ 0 "" 2
 145              		.thumb
 146              	.LBE6:
 147              		.loc 1 48 0
 148 0010 0123     		movs	r3, #1
 149 0012 0025     		movs	r5, #0
 150 0014 0193     		str	r3, [sp, #4]
 151 0016 0094     		str	r4, [sp]
 152 0018 0295     		str	r5, [sp, #8]
 153 001a FFF7FEFF 		bl	TWID_Write
 154              	.LVL8:
 155              	.LBB7:
 156              		.loc 1 49 0
 157 001e 2B46     		mov	r3, r5
 158              	@ 49 "i2c.cpp" 1
 159 0020 83F31188 		msr     BASEPRI, r3
 160              	@ 0 "" 2
 161              		.thumb
 162              	.LBE7:
 163              	.LBE5:
 164              		.loc 1 50 0
 165 0024 07B0     		add	sp, sp, #28
 166              		.cfi_def_cfa_offset 12
 167              		@ sp needed
 168 0026 30BD     		pop	{r4, r5, pc}
 169              		.cfi_endproc
 170              	.LFE8:
 171              		.fnend
ARM GAS  /tmp/ccdAyFVV.s 			page 4


 172              		.size	_ZN3I2C9WriteByteEhhh, .-_ZN3I2C9WriteByteEhhh
 173              		.section	.text._ZN3I2C9WriteByteEhh,"ax",%progbits
 174              		.align	2
 175              		.p2align 4,,15
 176              		.global	_ZN3I2C9WriteByteEhh
 177              		.thumb
 178              		.thumb_func
 179              		.type	_ZN3I2C9WriteByteEhh, %function
 180              	_ZN3I2C9WriteByteEhh:
 181              		.fnstart
 182              	.LFB9:
 183              		.loc 1 52 0
 184              		.cfi_startproc
 185              		@ args = 0, pretend = 0, frame = 8
 186              		@ frame_needed = 0, uses_anonymous_args = 0
 187              	.LVL9:
 188 0000 30B5     		push	{r4, r5, lr}
 189              		.save {r4, r5, lr}
 190              		.cfi_def_cfa_offset 12
 191              		.cfi_offset 4, -12
 192              		.cfi_offset 5, -8
 193              		.cfi_offset 14, -4
 194              		.pad #28
 195 0002 87B0     		sub	sp, sp, #28
 196              		.cfi_def_cfa_offset 40
 197              		.loc 1 52 0
 198 0004 06AD     		add	r5, sp, #24
 199              	.LBB8:
 200              	.LBB9:
 201              		.loc 1 54 0
 202 0006 2023     		movs	r3, #32
 203              	.LBE9:
 204              	.LBE8:
 205              		.loc 1 52 0
 206 0008 05F8012D 		strb	r2, [r5, #-1]!
 207              	.LBB12:
 208              	.LBB10:
 209              		.loc 1 54 0
 210              	@ 54 "i2c.cpp" 1
 211 000c 83F31188 		msr     BASEPRI, r3
 212              	@ 0 "" 2
 213              		.thumb
 214              	.LBE10:
 215              		.loc 1 55 0
 216 0010 0024     		movs	r4, #0
 217 0012 0123     		movs	r3, #1
 218 0014 0193     		str	r3, [sp, #4]
 219 0016 0095     		str	r5, [sp]
 220 0018 2346     		mov	r3, r4
 221 001a 0294     		str	r4, [sp, #8]
 222 001c 2246     		mov	r2, r4
 223              	.LVL10:
 224 001e FFF7FEFF 		bl	TWID_Write
 225              	.LVL11:
 226              	.LBB11:
 227              		.loc 1 56 0
 228 0022 2346     		mov	r3, r4
ARM GAS  /tmp/ccdAyFVV.s 			page 5


 229              	@ 56 "i2c.cpp" 1
 230 0024 83F31188 		msr     BASEPRI, r3
 231              	@ 0 "" 2
 232              		.thumb
 233              	.LBE11:
 234              	.LBE12:
 235              		.loc 1 57 0
 236 0028 07B0     		add	sp, sp, #28
 237              		.cfi_def_cfa_offset 12
 238              		@ sp needed
 239 002a 30BD     		pop	{r4, r5, pc}
 240              		.cfi_endproc
 241              	.LFE9:
 242              		.fnend
 243              		.size	_ZN3I2C9WriteByteEhh, .-_ZN3I2C9WriteByteEhh
 244              		.section	.text._ZN3I2C8ReadByteEhh,"ax",%progbits
 245              		.align	2
 246              		.p2align 4,,15
 247              		.global	_ZN3I2C8ReadByteEhh
 248              		.thumb
 249              		.thumb_func
 250              		.type	_ZN3I2C8ReadByteEhh, %function
 251              	_ZN3I2C8ReadByteEhh:
 252              		.fnstart
 253              	.LFB10:
 254              		.loc 1 59 0
 255              		.cfi_startproc
 256              		@ args = 0, pretend = 0, frame = 8
 257              		@ frame_needed = 0, uses_anonymous_args = 0
 258              	.LVL12:
 259 0000 70B5     		push	{r4, r5, r6, lr}
 260              		.save {r4, r5, r6, lr}
 261              		.cfi_def_cfa_offset 16
 262              		.cfi_offset 4, -16
 263              		.cfi_offset 5, -12
 264              		.cfi_offset 6, -8
 265              		.cfi_offset 14, -4
 266              	.LBB13:
 267              	.LBB14:
 268              		.loc 1 61 0
 269 0002 2023     		movs	r3, #32
 270              	.LBE14:
 271              	.LBE13:
 272              		.loc 1 59 0
 273              		.pad #24
 274 0004 86B0     		sub	sp, sp, #24
 275              		.cfi_def_cfa_offset 40
 276              	.LBB17:
 277              	.LBB15:
 278              		.loc 1 61 0
 279              	@ 61 "i2c.cpp" 1
 280 0006 83F31188 		msr     BASEPRI, r3
 281              	@ 0 "" 2
 282              		.thumb
 283              	.LBE15:
 284              		.loc 1 65 0
 285 000a 0024     		movs	r4, #0
ARM GAS  /tmp/ccdAyFVV.s 			page 6


 286 000c 0DF11705 		add	r5, sp, #23
 287 0010 0123     		movs	r3, #1
 288 0012 0095     		str	r5, [sp]
 289 0014 0294     		str	r4, [sp, #8]
 290 0016 0193     		str	r3, [sp, #4]
 291 0018 FFF7FEFF 		bl	TWID_Read
 292              	.LVL13:
 293 001c 08B9     		cbnz	r0, .L10
 294              		.loc 1 65 0 is_stmt 0 discriminator 2
 295 001e 9DF81760 		ldrb	r6, [sp, #23]	@ zero_extendqisi2
 296              	.LVL14:
 297              	.L10:
 298              	.LBB16:
 299              		.loc 1 66 0 is_stmt 1
 300 0022 0023     		movs	r3, #0
 301              	@ 66 "i2c.cpp" 1
 302 0024 83F31188 		msr     BASEPRI, r3
 303              	@ 0 "" 2
 304              		.thumb
 305              	.LBE16:
 306              	.LBE17:
 307              		.loc 1 68 0
 308 0028 3046     		mov	r0, r6
 309 002a 06B0     		add	sp, sp, #24
 310              		.cfi_def_cfa_offset 16
 311              		@ sp needed
 312 002c 70BD     		pop	{r4, r5, r6, pc}
 313              		.cfi_endproc
 314              	.LFE10:
 315              		.fnend
 316              		.size	_ZN3I2C8ReadByteEhh, .-_ZN3I2C8ReadByteEhh
 317              		.section	.text._ZN3I2C8ReadByteEh,"ax",%progbits
 318              		.align	2
 319              		.p2align 4,,15
 320              		.global	_ZN3I2C8ReadByteEh
 321              		.thumb
 322              		.thumb_func
 323              		.type	_ZN3I2C8ReadByteEh, %function
 324              	_ZN3I2C8ReadByteEh:
 325              		.fnstart
 326              	.LFB11:
 327              		.loc 1 70 0
 328              		.cfi_startproc
 329              		@ args = 0, pretend = 0, frame = 8
 330              		@ frame_needed = 0, uses_anonymous_args = 0
 331              	.LVL15:
 332 0000 30B5     		push	{r4, r5, lr}
 333              		.save {r4, r5, lr}
 334              		.cfi_def_cfa_offset 12
 335              		.cfi_offset 4, -12
 336              		.cfi_offset 5, -8
 337              		.cfi_offset 14, -4
 338              	.LBB18:
 339              	.LBB19:
 340              		.loc 1 72 0
 341 0002 2023     		movs	r3, #32
 342              	.LBE19:
ARM GAS  /tmp/ccdAyFVV.s 			page 7


 343              	.LBE18:
 344              		.loc 1 70 0
 345              		.pad #28
 346 0004 87B0     		sub	sp, sp, #28
 347              		.cfi_def_cfa_offset 40
 348              	.LBB22:
 349              	.LBB20:
 350              		.loc 1 72 0
 351              	@ 72 "i2c.cpp" 1
 352 0006 83F31188 		msr     BASEPRI, r3
 353              	@ 0 "" 2
 354              		.thumb
 355              	.LBE20:
 356              		.loc 1 76 0
 357 000a 0123     		movs	r3, #1
 358 000c 0022     		movs	r2, #0
 359 000e 0DF11704 		add	r4, sp, #23
 360 0012 0193     		str	r3, [sp, #4]
 361 0014 0094     		str	r4, [sp]
 362 0016 0292     		str	r2, [sp, #8]
 363 0018 1346     		mov	r3, r2
 364 001a FFF7FEFF 		bl	TWID_Read
 365              	.LVL16:
 366 001e 08B9     		cbnz	r0, .L14
 367              		.loc 1 76 0 is_stmt 0 discriminator 2
 368 0020 9DF81750 		ldrb	r5, [sp, #23]	@ zero_extendqisi2
 369              	.LVL17:
 370              	.L14:
 371              	.LBB21:
 372              		.loc 1 77 0 is_stmt 1
 373 0024 0023     		movs	r3, #0
 374              	@ 77 "i2c.cpp" 1
 375 0026 83F31188 		msr     BASEPRI, r3
 376              	@ 0 "" 2
 377              		.thumb
 378              	.LBE21:
 379              	.LBE22:
 380              		.loc 1 79 0
 381 002a 2846     		mov	r0, r5
 382 002c 07B0     		add	sp, sp, #28
 383              		.cfi_def_cfa_offset 12
 384              		@ sp needed
 385 002e 30BD     		pop	{r4, r5, pc}
 386              		.cfi_endproc
 387              	.LFE11:
 388              		.fnend
 389              		.size	_ZN3I2C8ReadByteEh, .-_ZN3I2C8ReadByteEh
 390              		.section	.text._ZN3I2C9ReadBytesEhhPhh,"ax",%progbits
 391              		.align	2
 392              		.p2align 4,,15
 393              		.global	_ZN3I2C9ReadBytesEhhPhh
 394              		.thumb
 395              		.thumb_func
 396              		.type	_ZN3I2C9ReadBytesEhhPhh, %function
 397              	_ZN3I2C9ReadBytesEhhPhh:
 398              		.fnstart
 399              	.LFB12:
ARM GAS  /tmp/ccdAyFVV.s 			page 8


 400              		.loc 1 82 0
 401              		.cfi_startproc
 402              		@ args = 4, pretend = 0, frame = 0
 403              		@ frame_needed = 0, uses_anonymous_args = 0
 404              	.LVL18:
 405 0000 70B5     		push	{r4, r5, r6, lr}
 406              		.save {r4, r5, r6, lr}
 407              		.cfi_def_cfa_offset 16
 408              		.cfi_offset 4, -16
 409              		.cfi_offset 5, -12
 410              		.cfi_offset 6, -8
 411              		.cfi_offset 14, -4
 412              		.pad #16
 413 0002 84B0     		sub	sp, sp, #16
 414              		.cfi_def_cfa_offset 32
 415              		.loc 1 82 0
 416 0004 1E46     		mov	r6, r3
 417 0006 9DF82040 		ldrb	r4, [sp, #32]	@ zero_extendqisi2
 418              	.LBB23:
 419              	.LBB24:
 420              		.loc 1 83 0
 421 000a 2023     		movs	r3, #32
 422              	.LVL19:
 423              	@ 83 "i2c.cpp" 1
 424 000c 83F31188 		msr     BASEPRI, r3
 425              	@ 0 "" 2
 426              	.LVL20:
 427              		.thumb
 428              	.LBE24:
 429              		.loc 1 86 0
 430 0010 0025     		movs	r5, #0
 431 0012 0194     		str	r4, [sp, #4]
 432 0014 0096     		str	r6, [sp]
 433 0016 0295     		str	r5, [sp, #8]
 434 0018 0123     		movs	r3, #1
 435 001a FFF7FEFF 		bl	TWID_Read
 436              	.LVL21:
 437 001e A842     		cmp	r0, r5
 438              		.loc 1 84 0
 439 0020 18BF     		it	ne
 440 0022 2C46     		movne	r4, r5
 441              	.LVL22:
 442              	.LBB25:
 443              		.loc 1 89 0
 444 0024 2B46     		mov	r3, r5
 445              	@ 89 "i2c.cpp" 1
 446 0026 83F31188 		msr     BASEPRI, r3
 447              	@ 0 "" 2
 448              		.thumb
 449              	.LBE25:
 450              	.LBE23:
 451              		.loc 1 91 0
 452 002a 2046     		mov	r0, r4
 453 002c 04B0     		add	sp, sp, #16
 454              		.cfi_def_cfa_offset 16
 455              		@ sp needed
 456 002e 70BD     		pop	{r4, r5, r6, pc}
ARM GAS  /tmp/ccdAyFVV.s 			page 9


 457              		.cfi_endproc
 458              	.LFE12:
 459              		.fnend
 460              		.size	_ZN3I2C9ReadBytesEhhPhh, .-_ZN3I2C9ReadBytesEhhPhh
 461              		.section	.rodata._ZL4pins,"a",%progbits
 462              		.align	2
 463              		.set	.LANCHOR0,. + 0
 464              		.type	_ZL4pins, %object
 465              		.size	_ZL4pins, 24
 466              	_ZL4pins:
 467 0000 08000000 		.word	8
 468 0004 000E0E40 		.word	1074662912
 469 0008 0B       		.byte	11
 470 0009 00       		.byte	0
 471 000a 00       		.byte	0
 472 000b 00       		.space	1
 473 000c 10000000 		.word	16
 474 0010 000E0E40 		.word	1074662912
 475 0014 0B       		.byte	11
 476 0015 00       		.byte	0
 477 0016 00       		.byte	0
 478 0017 00       		.space	1
 479              		.text
 480              	.Letext0:
 481              		.file 2 "/opt/gcc-arm-none-eabi-4_9-2015q3/arm-none-eabi/include/machine/_default_types.h"
 482              		.file 3 "/opt/gcc-arm-none-eabi-4_9-2015q3/arm-none-eabi/include/sys/_stdint.h"
 483              		.file 4 "../../ext/ChibiOS/os/hal/platforms/AT91SAM3S/SAM3S.h"
 484              		.file 5 "../../ext/ChibiOS/os/hal/platforms/AT91SAM3S/pio.h"
 485              		.file 6 "../../ext/ChibiOS/os/hal/platforms/AT91SAM3S/async.h"
 486              		.file 7 "../../ext/ChibiOS/os/hal/platforms/AT91SAM3S/atmel_twid.h"
 487              		.file 8 "i2c.h"
 488              		.file 9 "../../ext/ChibiOS/os/hal/platforms/AT91SAM3S/atmel_twi.h"
 489              		.section	.debug_info,"",%progbits
 490              	.Ldebug_info0:
 491 0000 24100000 		.4byte	0x1024
 492 0004 0400     		.2byte	0x4
 493 0006 00000000 		.4byte	.Ldebug_abbrev0
 494 000a 04       		.byte	0x4
 495 000b 01       		.uleb128 0x1
 496 000c 19000000 		.4byte	.LASF180
 497 0010 04       		.byte	0x4
 498 0011 0A060000 		.4byte	.LASF181
 499 0015 11010000 		.4byte	.LASF182
 500 0019 78000000 		.4byte	.Ldebug_ranges0+0x78
 501 001d 00000000 		.4byte	0
 502 0021 00000000 		.4byte	.Ldebug_line0
 503 0025 02       		.uleb128 0x2
 504 0026 01       		.byte	0x1
 505 0027 06       		.byte	0x6
 506 0028 06020000 		.4byte	.LASF0
 507 002c 03       		.uleb128 0x3
 508 002d 78010000 		.4byte	.LASF5
 509 0031 02       		.byte	0x2
 510 0032 1D       		.byte	0x1d
 511 0033 37000000 		.4byte	0x37
 512 0037 02       		.uleb128 0x2
 513 0038 01       		.byte	0x1
ARM GAS  /tmp/ccdAyFVV.s 			page 10


 514 0039 08       		.byte	0x8
 515 003a 8A050000 		.4byte	.LASF1
 516 003e 02       		.uleb128 0x2
 517 003f 02       		.byte	0x2
 518 0040 05       		.byte	0x5
 519 0041 7C040000 		.4byte	.LASF2
 520 0045 02       		.uleb128 0x2
 521 0046 02       		.byte	0x2
 522 0047 07       		.byte	0x7
 523 0048 0D040000 		.4byte	.LASF3
 524 004c 02       		.uleb128 0x2
 525 004d 04       		.byte	0x4
 526 004e 05       		.byte	0x5
 527 004f A4020000 		.4byte	.LASF4
 528 0053 03       		.uleb128 0x3
 529 0054 11030000 		.4byte	.LASF6
 530 0058 02       		.byte	0x2
 531 0059 41       		.byte	0x41
 532 005a 5E000000 		.4byte	0x5e
 533 005e 02       		.uleb128 0x2
 534 005f 04       		.byte	0x4
 535 0060 07       		.byte	0x7
 536 0061 BF030000 		.4byte	.LASF7
 537 0065 02       		.uleb128 0x2
 538 0066 08       		.byte	0x8
 539 0067 05       		.byte	0x5
 540 0068 F8010000 		.4byte	.LASF8
 541 006c 02       		.uleb128 0x2
 542 006d 08       		.byte	0x8
 543 006e 07       		.byte	0x7
 544 006f B4010000 		.4byte	.LASF9
 545 0073 04       		.uleb128 0x4
 546 0074 04       		.byte	0x4
 547 0075 05       		.byte	0x5
 548 0076 696E7400 		.ascii	"int\000"
 549 007a 02       		.uleb128 0x2
 550 007b 04       		.byte	0x4
 551 007c 07       		.byte	0x7
 552 007d 7B030000 		.4byte	.LASF10
 553 0081 03       		.uleb128 0x3
 554 0082 38070000 		.4byte	.LASF11
 555 0086 03       		.byte	0x3
 556 0087 14       		.byte	0x14
 557 0088 2C000000 		.4byte	0x2c
 558 008c 03       		.uleb128 0x3
 559 008d EF060000 		.4byte	.LASF12
 560 0091 03       		.byte	0x3
 561 0092 20       		.byte	0x20
 562 0093 53000000 		.4byte	0x53
 563 0097 03       		.uleb128 0x3
 564 0098 BC070000 		.4byte	.LASF13
 565 009c 04       		.byte	0x4
 566 009d 37       		.byte	0x37
 567 009e A2000000 		.4byte	0xa2
 568 00a2 05       		.uleb128 0x5
 569 00a3 8C000000 		.4byte	0x8c
 570 00a7 03       		.uleb128 0x3
ARM GAS  /tmp/ccdAyFVV.s 			page 11


 571 00a8 FA040000 		.4byte	.LASF14
 572 00ac 04       		.byte	0x4
 573 00ad 39       		.byte	0x39
 574 00ae A2000000 		.4byte	0xa2
 575 00b2 03       		.uleb128 0x3
 576 00b3 E7040000 		.4byte	.LASF15
 577 00b7 04       		.byte	0x4
 578 00b8 3A       		.byte	0x3a
 579 00b9 A2000000 		.4byte	0xa2
 580 00bd 02       		.uleb128 0x2
 581 00be 04       		.byte	0x4
 582 00bf 07       		.byte	0x7
 583 00c0 AD040000 		.4byte	.LASF16
 584 00c4 06       		.uleb128 0x6
 585 00c5 5E000000 		.4byte	0x5e
 586 00c9 D4000000 		.4byte	0xd4
 587 00cd 07       		.uleb128 0x7
 588 00ce BD000000 		.4byte	0xbd
 589 00d2 12       		.byte	0x12
 590 00d3 00       		.byte	0
 591 00d4 06       		.uleb128 0x6
 592 00d5 5E000000 		.4byte	0x5e
 593 00d9 E4000000 		.4byte	0xe4
 594 00dd 07       		.uleb128 0x7
 595 00de BD000000 		.4byte	0xbd
 596 00e2 00       		.byte	0
 597 00e3 00       		.byte	0
 598 00e4 06       		.uleb128 0x6
 599 00e5 5E000000 		.4byte	0x5e
 600 00e9 F4000000 		.4byte	0xf4
 601 00ed 07       		.uleb128 0x7
 602 00ee BD000000 		.4byte	0xbd
 603 00f2 01       		.byte	0x1
 604 00f3 00       		.byte	0
 605 00f4 06       		.uleb128 0x6
 606 00f5 5E000000 		.4byte	0x5e
 607 00f9 04010000 		.4byte	0x104
 608 00fd 07       		.uleb128 0x7
 609 00fe BD000000 		.4byte	0xbd
 610 0102 04       		.byte	0x4
 611 0103 00       		.byte	0
 612 0104 06       		.uleb128 0x6
 613 0105 5E000000 		.4byte	0x5e
 614 0109 14010000 		.4byte	0x114
 615 010d 07       		.uleb128 0x7
 616 010e BD000000 		.4byte	0xbd
 617 0112 03       		.byte	0x3
 618 0113 00       		.byte	0
 619 0114 08       		.uleb128 0x8
 620 0115 9001     		.2byte	0x190
 621 0117 04       		.byte	0x4
 622 0118 DF06     		.2byte	0x6df
 623 011a 69040000 		.4byte	.LASF93
 624 011e 11050000 		.4byte	0x511
 625 0122 09       		.uleb128 0x9
 626 0123 09030000 		.4byte	.LASF17
 627 0127 04       		.byte	0x4
ARM GAS  /tmp/ccdAyFVV.s 			page 12


 628 0128 E006     		.2byte	0x6e0
 629 012a A7000000 		.4byte	0xa7
 630 012e 00       		.byte	0
 631 012f 09       		.uleb128 0x9
 632 0130 9C020000 		.4byte	.LASF18
 633 0134 04       		.byte	0x4
 634 0135 E106     		.2byte	0x6e1
 635 0137 A7000000 		.4byte	0xa7
 636 013b 04       		.byte	0x4
 637 013c 09       		.uleb128 0x9
 638 013d 36020000 		.4byte	.LASF19
 639 0141 04       		.byte	0x4
 640 0142 E206     		.2byte	0x6e2
 641 0144 97000000 		.4byte	0x97
 642 0148 08       		.byte	0x8
 643 0149 09       		.uleb128 0x9
 644 014a 3E020000 		.4byte	.LASF20
 645 014e 04       		.byte	0x4
 646 014f E306     		.2byte	0x6e3
 647 0151 11050000 		.4byte	0x511
 648 0155 0C       		.byte	0xc
 649 0156 09       		.uleb128 0x9
 650 0157 25050000 		.4byte	.LASF21
 651 015b 04       		.byte	0x4
 652 015c E406     		.2byte	0x6e4
 653 015e A7000000 		.4byte	0xa7
 654 0162 10       		.byte	0x10
 655 0163 09       		.uleb128 0x9
 656 0164 E3030000 		.4byte	.LASF22
 657 0168 04       		.byte	0x4
 658 0169 E506     		.2byte	0x6e5
 659 016b A7000000 		.4byte	0xa7
 660 016f 14       		.byte	0x14
 661 0170 09       		.uleb128 0x9
 662 0171 AE030000 		.4byte	.LASF23
 663 0175 04       		.byte	0x4
 664 0176 E606     		.2byte	0x6e6
 665 0178 97000000 		.4byte	0x97
 666 017c 18       		.byte	0x18
 667 017d 09       		.uleb128 0x9
 668 017e 48020000 		.4byte	.LASF24
 669 0182 04       		.byte	0x4
 670 0183 E706     		.2byte	0x6e7
 671 0185 16050000 		.4byte	0x516
 672 0189 1C       		.byte	0x1c
 673 018a 09       		.uleb128 0x9
 674 018b A1060000 		.4byte	.LASF25
 675 018f 04       		.byte	0x4
 676 0190 E806     		.2byte	0x6e8
 677 0192 A7000000 		.4byte	0xa7
 678 0196 20       		.byte	0x20
 679 0197 09       		.uleb128 0x9
 680 0198 C9050000 		.4byte	.LASF26
 681 019c 04       		.byte	0x4
 682 019d E906     		.2byte	0x6e9
 683 019f A7000000 		.4byte	0xa7
 684 01a3 24       		.byte	0x24
ARM GAS  /tmp/ccdAyFVV.s 			page 13


 685 01a4 09       		.uleb128 0x9
 686 01a5 98050000 		.4byte	.LASF27
 687 01a9 04       		.byte	0x4
 688 01aa EA06     		.2byte	0x6ea
 689 01ac 97000000 		.4byte	0x97
 690 01b0 28       		.byte	0x28
 691 01b1 09       		.uleb128 0x9
 692 01b2 EB030000 		.4byte	.LASF28
 693 01b6 04       		.byte	0x4
 694 01b7 EB06     		.2byte	0x6eb
 695 01b9 1B050000 		.4byte	0x51b
 696 01bd 2C       		.byte	0x2c
 697 01be 09       		.uleb128 0x9
 698 01bf B3070000 		.4byte	.LASF29
 699 01c3 04       		.byte	0x4
 700 01c4 EC06     		.2byte	0x6ec
 701 01c6 A7000000 		.4byte	0xa7
 702 01ca 30       		.byte	0x30
 703 01cb 09       		.uleb128 0x9
 704 01cc D2050000 		.4byte	.LASF30
 705 01d0 04       		.byte	0x4
 706 01d1 ED06     		.2byte	0x6ed
 707 01d3 A7000000 		.4byte	0xa7
 708 01d7 34       		.byte	0x34
 709 01d8 09       		.uleb128 0x9
 710 01d9 DA030000 		.4byte	.LASF31
 711 01dd 04       		.byte	0x4
 712 01de EE06     		.2byte	0x6ee
 713 01e0 B2000000 		.4byte	0xb2
 714 01e4 38       		.byte	0x38
 715 01e5 09       		.uleb128 0x9
 716 01e6 ED020000 		.4byte	.LASF32
 717 01ea 04       		.byte	0x4
 718 01eb EF06     		.2byte	0x6ef
 719 01ed 97000000 		.4byte	0x97
 720 01f1 3C       		.byte	0x3c
 721 01f2 09       		.uleb128 0x9
 722 01f3 0F050000 		.4byte	.LASF33
 723 01f7 04       		.byte	0x4
 724 01f8 F006     		.2byte	0x6f0
 725 01fa A7000000 		.4byte	0xa7
 726 01fe 40       		.byte	0x40
 727 01ff 09       		.uleb128 0x9
 728 0200 86040000 		.4byte	.LASF34
 729 0204 04       		.byte	0x4
 730 0205 F106     		.2byte	0x6f1
 731 0207 A7000000 		.4byte	0xa7
 732 020b 44       		.byte	0x44
 733 020c 09       		.uleb128 0x9
 734 020d B8050000 		.4byte	.LASF35
 735 0211 04       		.byte	0x4
 736 0212 F206     		.2byte	0x6f2
 737 0214 97000000 		.4byte	0x97
 738 0218 48       		.byte	0x48
 739 0219 09       		.uleb128 0x9
 740 021a 6E040000 		.4byte	.LASF36
 741 021e 04       		.byte	0x4
ARM GAS  /tmp/ccdAyFVV.s 			page 14


 742 021f F306     		.2byte	0x6f3
 743 0221 97000000 		.4byte	0x97
 744 0225 4C       		.byte	0x4c
 745 0226 09       		.uleb128 0x9
 746 0227 01060000 		.4byte	.LASF37
 747 022b 04       		.byte	0x4
 748 022c F406     		.2byte	0x6f4
 749 022e A7000000 		.4byte	0xa7
 750 0232 50       		.byte	0x50
 751 0233 09       		.uleb128 0x9
 752 0234 2D050000 		.4byte	.LASF38
 753 0238 04       		.byte	0x4
 754 0239 F506     		.2byte	0x6f5
 755 023b A7000000 		.4byte	0xa7
 756 023f 54       		.byte	0x54
 757 0240 09       		.uleb128 0x9
 758 0241 B6030000 		.4byte	.LASF39
 759 0245 04       		.byte	0x4
 760 0246 F606     		.2byte	0x6f6
 761 0248 97000000 		.4byte	0x97
 762 024c 58       		.byte	0x58
 763 024d 09       		.uleb128 0x9
 764 024e 83060000 		.4byte	.LASF40
 765 0252 04       		.byte	0x4
 766 0253 F706     		.2byte	0x6f7
 767 0255 20050000 		.4byte	0x520
 768 0259 5C       		.byte	0x5c
 769 025a 09       		.uleb128 0x9
 770 025b 57020000 		.4byte	.LASF41
 771 025f 04       		.byte	0x4
 772 0260 F806     		.2byte	0x6f8
 773 0262 A7000000 		.4byte	0xa7
 774 0266 60       		.byte	0x60
 775 0267 09       		.uleb128 0x9
 776 0268 92030000 		.4byte	.LASF42
 777 026c 04       		.byte	0x4
 778 026d F906     		.2byte	0x6f9
 779 026f A7000000 		.4byte	0xa7
 780 0273 64       		.byte	0x64
 781 0274 09       		.uleb128 0x9
 782 0275 EF010000 		.4byte	.LASF43
 783 0279 04       		.byte	0x4
 784 027a FA06     		.2byte	0x6fa
 785 027c 97000000 		.4byte	0x97
 786 0280 68       		.byte	0x68
 787 0281 09       		.uleb128 0x9
 788 0282 FE030000 		.4byte	.LASF44
 789 0286 04       		.byte	0x4
 790 0287 FB06     		.2byte	0x6fb
 791 0289 25050000 		.4byte	0x525
 792 028d 6C       		.byte	0x6c
 793 028e 09       		.uleb128 0x9
 794 028f FE020000 		.4byte	.LASF45
 795 0293 04       		.byte	0x4
 796 0294 FC06     		.2byte	0x6fc
 797 0296 2A050000 		.4byte	0x52a
 798 029a 70       		.byte	0x70
ARM GAS  /tmp/ccdAyFVV.s 			page 15


 799 029b 09       		.uleb128 0x9
 800 029c 6A020000 		.4byte	.LASF46
 801 02a0 04       		.byte	0x4
 802 02a1 FD06     		.2byte	0x6fd
 803 02a3 2F050000 		.4byte	0x52f
 804 02a7 78       		.byte	0x78
 805 02a8 09       		.uleb128 0x9
 806 02a9 8D060000 		.4byte	.LASF47
 807 02ad 04       		.byte	0x4
 808 02ae FE06     		.2byte	0x6fe
 809 02b0 A7000000 		.4byte	0xa7
 810 02b4 80       		.byte	0x80
 811 02b5 09       		.uleb128 0x9
 812 02b6 8D070000 		.4byte	.LASF48
 813 02ba 04       		.byte	0x4
 814 02bb FF06     		.2byte	0x6ff
 815 02bd A7000000 		.4byte	0xa7
 816 02c1 84       		.byte	0x84
 817 02c2 09       		.uleb128 0x9
 818 02c3 5C060000 		.4byte	.LASF49
 819 02c7 04       		.byte	0x4
 820 02c8 0007     		.2byte	0x700
 821 02ca 97000000 		.4byte	0x97
 822 02ce 88       		.byte	0x88
 823 02cf 09       		.uleb128 0x9
 824 02d0 E6010000 		.4byte	.LASF50
 825 02d4 04       		.byte	0x4
 826 02d5 0107     		.2byte	0x701
 827 02d7 B2000000 		.4byte	0xb2
 828 02db 8C       		.byte	0x8c
 829 02dc 09       		.uleb128 0x9
 830 02dd 00050000 		.4byte	.LASF51
 831 02e1 04       		.byte	0x4
 832 02e2 0207     		.2byte	0x702
 833 02e4 A7000000 		.4byte	0xa7
 834 02e8 90       		.byte	0x90
 835 02e9 09       		.uleb128 0x9
 836 02ea 92020000 		.4byte	.LASF52
 837 02ee 04       		.byte	0x4
 838 02ef 0307     		.2byte	0x703
 839 02f1 A7000000 		.4byte	0xa7
 840 02f5 94       		.byte	0x94
 841 02f6 09       		.uleb128 0x9
 842 02f7 0D070000 		.4byte	.LASF53
 843 02fb 04       		.byte	0x4
 844 02fc 0407     		.2byte	0x704
 845 02fe 97000000 		.4byte	0x97
 846 0302 98       		.byte	0x98
 847 0303 09       		.uleb128 0x9
 848 0304 74020000 		.4byte	.LASF54
 849 0308 04       		.byte	0x4
 850 0309 0507     		.2byte	0x705
 851 030b 34050000 		.4byte	0x534
 852 030f 9C       		.byte	0x9c
 853 0310 09       		.uleb128 0x9
 854 0311 C0050000 		.4byte	.LASF55
 855 0315 04       		.byte	0x4
ARM GAS  /tmp/ccdAyFVV.s 			page 16


 856 0316 0607     		.2byte	0x706
 857 0318 A7000000 		.4byte	0xa7
 858 031c A0       		.byte	0xa0
 859 031d 09       		.uleb128 0x9
 860 031e AA070000 		.4byte	.LASF56
 861 0322 04       		.byte	0x4
 862 0323 0707     		.2byte	0x707
 863 0325 A7000000 		.4byte	0xa7
 864 0329 A4       		.byte	0xa4
 865 032a 09       		.uleb128 0x9
 866 032b 6C070000 		.4byte	.LASF57
 867 032f 04       		.byte	0x4
 868 0330 0807     		.2byte	0x708
 869 0332 97000000 		.4byte	0x97
 870 0336 A8       		.byte	0xa8
 871 0337 09       		.uleb128 0x9
 872 0338 7E020000 		.4byte	.LASF58
 873 033c 04       		.byte	0x4
 874 033d 0907     		.2byte	0x709
 875 033f 39050000 		.4byte	0x539
 876 0343 AC       		.byte	0xac
 877 0344 09       		.uleb128 0x9
 878 0345 FF000000 		.4byte	.LASF59
 879 0349 04       		.byte	0x4
 880 034a 0A07     		.2byte	0x70a
 881 034c A7000000 		.4byte	0xa7
 882 0350 B0       		.byte	0xb0
 883 0351 09       		.uleb128 0x9
 884 0352 48060000 		.4byte	.LASF60
 885 0356 04       		.byte	0x4
 886 0357 0B07     		.2byte	0x70b
 887 0359 A7000000 		.4byte	0xa7
 888 035d B4       		.byte	0xb4
 889 035e 09       		.uleb128 0x9
 890 035f 96040000 		.4byte	.LASF61
 891 0363 04       		.byte	0x4
 892 0364 0C07     		.2byte	0x70c
 893 0366 97000000 		.4byte	0x97
 894 036a B8       		.byte	0xb8
 895 036b 09       		.uleb128 0x9
 896 036c 88020000 		.4byte	.LASF62
 897 0370 04       		.byte	0x4
 898 0371 0D07     		.2byte	0x70d
 899 0373 3E050000 		.4byte	0x53e
 900 0377 BC       		.byte	0xbc
 901 0378 09       		.uleb128 0x9
 902 0379 1C020000 		.4byte	.LASF63
 903 037d 04       		.byte	0x4
 904 037e 0E07     		.2byte	0x70e
 905 0380 A7000000 		.4byte	0xa7
 906 0384 C0       		.byte	0xc0
 907 0385 09       		.uleb128 0x9
 908 0386 1F070000 		.4byte	.LASF64
 909 038a 04       		.byte	0x4
 910 038b 0F07     		.2byte	0x70f
 911 038d A7000000 		.4byte	0xa7
 912 0391 C4       		.byte	0xc4
ARM GAS  /tmp/ccdAyFVV.s 			page 17


 913 0392 09       		.uleb128 0x9
 914 0393 10000000 		.4byte	.LASF65
 915 0397 04       		.byte	0x4
 916 0398 1007     		.2byte	0x710
 917 039a 97000000 		.4byte	0x97
 918 039e C8       		.byte	0xc8
 919 039f 09       		.uleb128 0x9
 920 03a0 29030000 		.4byte	.LASF66
 921 03a4 04       		.byte	0x4
 922 03a5 1107     		.2byte	0x711
 923 03a7 43050000 		.4byte	0x543
 924 03ab CC       		.byte	0xcc
 925 03ac 09       		.uleb128 0x9
 926 03ad 65050000 		.4byte	.LASF67
 927 03b1 04       		.byte	0x4
 928 03b2 1207     		.2byte	0x712
 929 03b4 A7000000 		.4byte	0xa7
 930 03b8 D0       		.byte	0xd0
 931 03b9 09       		.uleb128 0x9
 932 03ba 12060000 		.4byte	.LASF68
 933 03be 04       		.byte	0x4
 934 03bf 1307     		.2byte	0x713
 935 03c1 A7000000 		.4byte	0xa7
 936 03c5 D4       		.byte	0xd4
 937 03c6 09       		.uleb128 0x9
 938 03c7 9B030000 		.4byte	.LASF69
 939 03cb 04       		.byte	0x4
 940 03cc 1407     		.2byte	0x714
 941 03ce 97000000 		.4byte	0x97
 942 03d2 D8       		.byte	0xd8
 943 03d3 09       		.uleb128 0x9
 944 03d4 34030000 		.4byte	.LASF70
 945 03d8 04       		.byte	0x4
 946 03d9 1507     		.2byte	0x715
 947 03db 48050000 		.4byte	0x548
 948 03df DC       		.byte	0xdc
 949 03e0 09       		.uleb128 0x9
 950 03e1 55040000 		.4byte	.LASF71
 951 03e5 04       		.byte	0x4
 952 03e6 1607     		.2byte	0x716
 953 03e8 97000000 		.4byte	0x97
 954 03ec E0       		.byte	0xe0
 955 03ed 09       		.uleb128 0x9
 956 03ee BF040000 		.4byte	.LASF72
 957 03f2 04       		.byte	0x4
 958 03f3 1707     		.2byte	0x717
 959 03f5 B2000000 		.4byte	0xb2
 960 03f9 E4       		.byte	0xe4
 961 03fa 09       		.uleb128 0x9
 962 03fb 55030000 		.4byte	.LASF73
 963 03ff 04       		.byte	0x4
 964 0400 1807     		.2byte	0x718
 965 0402 97000000 		.4byte	0x97
 966 0406 E8       		.byte	0xe8
 967 0407 09       		.uleb128 0x9
 968 0408 3F030000 		.4byte	.LASF74
 969 040c 04       		.byte	0x4
ARM GAS  /tmp/ccdAyFVV.s 			page 18


 970 040d 1907     		.2byte	0x719
 971 040f 4D050000 		.4byte	0x54d
 972 0413 EC       		.byte	0xec
 973 0414 0A       		.uleb128 0xa
 974 0415 82010000 		.4byte	.LASF75
 975 0419 04       		.byte	0x4
 976 041a 1A07     		.2byte	0x71a
 977 041c B2000000 		.4byte	0xb2
 978 0420 0001     		.2byte	0x100
 979 0422 0A       		.uleb128 0xa
 980 0423 4A030000 		.4byte	.LASF76
 981 0427 04       		.byte	0x4
 982 0428 1B07     		.2byte	0x71b
 983 042a 52050000 		.4byte	0x552
 984 042e 0401     		.2byte	0x104
 985 0430 0A       		.uleb128 0xa
 986 0431 77050000 		.4byte	.LASF77
 987 0435 04       		.byte	0x4
 988 0436 1C07     		.2byte	0x71c
 989 0438 B2000000 		.4byte	0xb2
 990 043c 5001     		.2byte	0x150
 991 043e 0A       		.uleb128 0xa
 992 043f E3020000 		.4byte	.LASF78
 993 0443 04       		.byte	0x4
 994 0444 1D07     		.2byte	0x71d
 995 0446 A7000000 		.4byte	0xa7
 996 044a 5401     		.2byte	0x154
 997 044c 0A       		.uleb128 0xa
 998 044d CB010000 		.4byte	.LASF79
 999 0451 04       		.byte	0x4
 1000 0452 1E07     		.2byte	0x71e
 1001 0454 A7000000 		.4byte	0xa7
 1002 0458 5801     		.2byte	0x158
 1003 045a 0A       		.uleb128 0xa
 1004 045b 12020000 		.4byte	.LASF80
 1005 045f 04       		.byte	0x4
 1006 0460 1F07     		.2byte	0x71f
 1007 0462 97000000 		.4byte	0x97
 1008 0466 5C01     		.2byte	0x15c
 1009 0468 0A       		.uleb128 0xa
 1010 0469 A1010000 		.4byte	.LASF81
 1011 046d 04       		.byte	0x4
 1012 046e 2007     		.2byte	0x720
 1013 0470 97000000 		.4byte	0x97
 1014 0474 6001     		.2byte	0x160
 1015 0476 0A       		.uleb128 0xa
 1016 0477 06000000 		.4byte	.LASF82
 1017 047b 04       		.byte	0x4
 1018 047c 2107     		.2byte	0x721
 1019 047e 97000000 		.4byte	0x97
 1020 0482 6401     		.2byte	0x164
 1021 0484 0A       		.uleb128 0xa
 1022 0485 3D040000 		.4byte	.LASF83
 1023 0489 04       		.byte	0x4
 1024 048a 2207     		.2byte	0x722
 1025 048c B2000000 		.4byte	0xb2
 1026 0490 6801     		.2byte	0x168
ARM GAS  /tmp/ccdAyFVV.s 			page 19


 1027 0492 0A       		.uleb128 0xa
 1028 0493 E5050000 		.4byte	.LASF84
 1029 0497 04       		.byte	0x4
 1030 0498 2307     		.2byte	0x723
 1031 049a B2000000 		.4byte	0xb2
 1032 049e 6C01     		.2byte	0x16c
 1033 04a0 0A       		.uleb128 0xa
 1034 04a1 54010000 		.4byte	.LASF85
 1035 04a5 04       		.byte	0x4
 1036 04a6 2407     		.2byte	0x724
 1037 04a8 B2000000 		.4byte	0xb2
 1038 04ac 7001     		.2byte	0x170
 1039 04ae 0A       		.uleb128 0xa
 1040 04af A6030000 		.4byte	.LASF86
 1041 04b3 04       		.byte	0x4
 1042 04b4 2507     		.2byte	0x725
 1043 04b6 B2000000 		.4byte	0xb2
 1044 04ba 7401     		.2byte	0x174
 1045 04bc 0A       		.uleb128 0xa
 1046 04bd AA060000 		.4byte	.LASF87
 1047 04c1 04       		.byte	0x4
 1048 04c2 2607     		.2byte	0x726
 1049 04c4 B2000000 		.4byte	0xb2
 1050 04c8 7801     		.2byte	0x178
 1051 04ca 0A       		.uleb128 0xa
 1052 04cb D5010000 		.4byte	.LASF88
 1053 04cf 04       		.byte	0x4
 1054 04d0 2707     		.2byte	0x727
 1055 04d2 B2000000 		.4byte	0xb2
 1056 04d6 7C01     		.2byte	0x17c
 1057 04d8 0A       		.uleb128 0xa
 1058 04d9 36050000 		.4byte	.LASF89
 1059 04dd 04       		.byte	0x4
 1060 04de 2807     		.2byte	0x728
 1061 04e0 B2000000 		.4byte	0xb2
 1062 04e4 8001     		.2byte	0x180
 1063 04e6 0A       		.uleb128 0xa
 1064 04e7 27070000 		.4byte	.LASF90
 1065 04eb 04       		.byte	0x4
 1066 04ec 2907     		.2byte	0x729
 1067 04ee B2000000 		.4byte	0xb2
 1068 04f2 8401     		.2byte	0x184
 1069 04f4 0A       		.uleb128 0xa
 1070 04f5 DA020000 		.4byte	.LASF91
 1071 04f9 04       		.byte	0x4
 1072 04fa 2A07     		.2byte	0x72a
 1073 04fc A7000000 		.4byte	0xa7
 1074 0500 8801     		.2byte	0x188
 1075 0502 0A       		.uleb128 0xa
 1076 0503 D1030000 		.4byte	.LASF92
 1077 0507 04       		.byte	0x4
 1078 0508 2B07     		.2byte	0x72b
 1079 050a 97000000 		.4byte	0x97
 1080 050e 8C01     		.2byte	0x18c
 1081 0510 00       		.byte	0
 1082 0511 05       		.uleb128 0x5
 1083 0512 D4000000 		.4byte	0xd4
ARM GAS  /tmp/ccdAyFVV.s 			page 20


 1084 0516 05       		.uleb128 0x5
 1085 0517 D4000000 		.4byte	0xd4
 1086 051b 05       		.uleb128 0x5
 1087 051c D4000000 		.4byte	0xd4
 1088 0520 05       		.uleb128 0x5
 1089 0521 D4000000 		.4byte	0xd4
 1090 0525 05       		.uleb128 0x5
 1091 0526 D4000000 		.4byte	0xd4
 1092 052a 05       		.uleb128 0x5
 1093 052b E4000000 		.4byte	0xe4
 1094 052f 05       		.uleb128 0x5
 1095 0530 E4000000 		.4byte	0xe4
 1096 0534 05       		.uleb128 0x5
 1097 0535 D4000000 		.4byte	0xd4
 1098 0539 05       		.uleb128 0x5
 1099 053a D4000000 		.4byte	0xd4
 1100 053e 05       		.uleb128 0x5
 1101 053f D4000000 		.4byte	0xd4
 1102 0543 05       		.uleb128 0x5
 1103 0544 D4000000 		.4byte	0xd4
 1104 0548 05       		.uleb128 0x5
 1105 0549 D4000000 		.4byte	0xd4
 1106 054d 05       		.uleb128 0x5
 1107 054e F4000000 		.4byte	0xf4
 1108 0552 05       		.uleb128 0x5
 1109 0553 C4000000 		.4byte	0xc4
 1110 0557 0B       		.uleb128 0xb
 1111 0558 50696F00 		.ascii	"Pio\000"
 1112 055c 04       		.byte	0x4
 1113 055d 2C07     		.2byte	0x72c
 1114 055f 14010000 		.4byte	0x114
 1115 0563 08       		.uleb128 0x8
 1116 0564 1401     		.2byte	0x114
 1117 0566 04       		.byte	0x4
 1118 0567 440D     		.2byte	0xd44
 1119 0569 BB060000 		.4byte	.LASF94
 1120 056d 31070000 		.4byte	0x731
 1121 0571 09       		.uleb128 0x9
 1122 0572 A1070000 		.4byte	.LASF95
 1123 0576 04       		.byte	0x4
 1124 0577 450D     		.2byte	0xd45
 1125 0579 A7000000 		.4byte	0xa7
 1126 057d 00       		.byte	0
 1127 057e 09       		.uleb128 0x9
 1128 057f 24020000 		.4byte	.LASF96
 1129 0583 04       		.byte	0x4
 1130 0584 460D     		.2byte	0xd46
 1131 0586 A7000000 		.4byte	0xa7
 1132 058a 04       		.byte	0x4
 1133 058b 09       		.uleb128 0x9
 1134 058c 72060000 		.4byte	.LASF97
 1135 0590 04       		.byte	0x4
 1136 0591 470D     		.2byte	0xd47
 1137 0593 97000000 		.4byte	0x97
 1138 0597 08       		.byte	0x8
 1139 0598 09       		.uleb128 0x9
 1140 0599 3E020000 		.4byte	.LASF20
ARM GAS  /tmp/ccdAyFVV.s 			page 21


 1141 059d 04       		.byte	0x4
 1142 059e 480D     		.2byte	0xd48
 1143 05a0 31070000 		.4byte	0x731
 1144 05a4 0C       		.byte	0xc
 1145 05a5 09       		.uleb128 0x9
 1146 05a6 C6020000 		.4byte	.LASF98
 1147 05aa 04       		.byte	0x4
 1148 05ab 490D     		.2byte	0xd49
 1149 05ad A7000000 		.4byte	0xa7
 1150 05b1 10       		.byte	0x10
 1151 05b2 09       		.uleb128 0x9
 1152 05b3 29040000 		.4byte	.LASF99
 1153 05b7 04       		.byte	0x4
 1154 05b8 4A0D     		.2byte	0xd4a
 1155 05ba A7000000 		.4byte	0xa7
 1156 05be 14       		.byte	0x14
 1157 05bf 09       		.uleb128 0x9
 1158 05c0 60020000 		.4byte	.LASF100
 1159 05c4 04       		.byte	0x4
 1160 05c5 4B0D     		.2byte	0xd4b
 1161 05c7 97000000 		.4byte	0x97
 1162 05cb 18       		.byte	0x18
 1163 05cc 09       		.uleb128 0x9
 1164 05cd 48020000 		.4byte	.LASF24
 1165 05d1 04       		.byte	0x4
 1166 05d2 4C0D     		.2byte	0xd4c
 1167 05d4 36070000 		.4byte	0x736
 1168 05d8 1C       		.byte	0x1c
 1169 05d9 09       		.uleb128 0x9
 1170 05da 5C010000 		.4byte	.LASF101
 1171 05de 04       		.byte	0x4
 1172 05df 4D0D     		.2byte	0xd4d
 1173 05e1 B2000000 		.4byte	0xb2
 1174 05e5 20       		.byte	0x20
 1175 05e6 09       		.uleb128 0x9
 1176 05e7 88030000 		.4byte	.LASF102
 1177 05eb 04       		.byte	0x4
 1178 05ec 4E0D     		.2byte	0xd4e
 1179 05ee 97000000 		.4byte	0x97
 1180 05f2 24       		.byte	0x24
 1181 05f3 09       		.uleb128 0x9
 1182 05f4 47050000 		.4byte	.LASF103
 1183 05f8 04       		.byte	0x4
 1184 05f9 4F0D     		.2byte	0xd4f
 1185 05fb B2000000 		.4byte	0xb2
 1186 05ff 28       		.byte	0x28
 1187 0600 09       		.uleb128 0x9
 1188 0601 24060000 		.4byte	.LASF104
 1189 0605 04       		.byte	0x4
 1190 0606 500D     		.2byte	0xd50
 1191 0608 B2000000 		.4byte	0xb2
 1192 060c 2C       		.byte	0x2c
 1193 060d 09       		.uleb128 0x9
 1194 060e 20040000 		.4byte	.LASF105
 1195 0612 04       		.byte	0x4
 1196 0613 510D     		.2byte	0xd51
 1197 0615 B2000000 		.4byte	0xb2
ARM GAS  /tmp/ccdAyFVV.s 			page 22


 1198 0619 30       		.byte	0x30
 1199 061a 09       		.uleb128 0x9
 1200 061b EB030000 		.4byte	.LASF28
 1201 061f 04       		.byte	0x4
 1202 0620 520D     		.2byte	0xd52
 1203 0622 3B070000 		.4byte	0x73b
 1204 0626 34       		.byte	0x34
 1205 0627 09       		.uleb128 0x9
 1206 0628 8E040000 		.4byte	.LASF106
 1207 062c 04       		.byte	0x4
 1208 062d 530D     		.2byte	0xd53
 1209 062f B2000000 		.4byte	0xb2
 1210 0633 38       		.byte	0x38
 1211 0634 09       		.uleb128 0x9
 1212 0635 83060000 		.4byte	.LASF40
 1213 0639 04       		.byte	0x4
 1214 063a 540D     		.2byte	0xd54
 1215 063c 40070000 		.4byte	0x740
 1216 0640 3C       		.byte	0x3c
 1217 0641 09       		.uleb128 0x9
 1218 0642 21030000 		.4byte	.LASF107
 1219 0646 04       		.byte	0x4
 1220 0647 550D     		.2byte	0xd55
 1221 0649 55070000 		.4byte	0x755
 1222 064d 40       		.byte	0x40
 1223 064e 09       		.uleb128 0x9
 1224 064f FE030000 		.4byte	.LASF44
 1225 0653 04       		.byte	0x4
 1226 0654 560D     		.2byte	0xd56
 1227 0656 5A070000 		.4byte	0x75a
 1228 065a 4C       		.byte	0x4c
 1229 065b 09       		.uleb128 0x9
 1230 065c B3060000 		.4byte	.LASF108
 1231 0660 04       		.byte	0x4
 1232 0661 570D     		.2byte	0xd57
 1233 0663 A7000000 		.4byte	0xa7
 1234 0667 60       		.byte	0x60
 1235 0668 09       		.uleb128 0x9
 1236 0669 ED050000 		.4byte	.LASF109
 1237 066d 04       		.byte	0x4
 1238 066e 580D     		.2byte	0xd58
 1239 0670 A7000000 		.4byte	0xa7
 1240 0674 64       		.byte	0x64
 1241 0675 09       		.uleb128 0x9
 1242 0676 74030000 		.4byte	.LASF110
 1243 067a 04       		.byte	0x4
 1244 067b 590D     		.2byte	0xd59
 1245 067d 97000000 		.4byte	0x97
 1246 0681 68       		.byte	0x68
 1247 0682 09       		.uleb128 0x9
 1248 0683 17070000 		.4byte	.LASF111
 1249 0687 04       		.byte	0x4
 1250 0688 5A0D     		.2byte	0xd5a
 1251 068a 97000000 		.4byte	0x97
 1252 068e 6C       		.byte	0x6c
 1253 068f 09       		.uleb128 0x9
 1254 0690 C0060000 		.4byte	.LASF112
ARM GAS  /tmp/ccdAyFVV.s 			page 23


 1255 0694 04       		.byte	0x4
 1256 0695 5B0D     		.2byte	0xd5b
 1257 0697 B2000000 		.4byte	0xb2
 1258 069b 70       		.byte	0x70
 1259 069c 09       		.uleb128 0x9
 1260 069d 84070000 		.4byte	.LASF113
 1261 06a1 04       		.byte	0x4
 1262 06a2 5C0D     		.2byte	0xd5c
 1263 06a4 B2000000 		.4byte	0xb2
 1264 06a8 74       		.byte	0x74
 1265 06a9 09       		.uleb128 0x9
 1266 06aa 98070000 		.4byte	.LASF114
 1267 06ae 04       		.byte	0x4
 1268 06af 5D0D     		.2byte	0xd5d
 1269 06b1 A7000000 		.4byte	0xa7
 1270 06b5 78       		.byte	0x78
 1271 06b6 09       		.uleb128 0x9
 1272 06b7 6A020000 		.4byte	.LASF46
 1273 06bb 04       		.byte	0x4
 1274 06bc 5E0D     		.2byte	0xd5e
 1275 06be 6F070000 		.4byte	0x76f
 1276 06c2 7C       		.byte	0x7c
 1277 06c3 09       		.uleb128 0x9
 1278 06c4 BD020000 		.4byte	.LASF115
 1279 06c8 04       		.byte	0x4
 1280 06c9 5F0D     		.2byte	0xd5f
 1281 06cb B2000000 		.4byte	0xb2
 1282 06cf E4       		.byte	0xe4
 1283 06d0 09       		.uleb128 0x9
 1284 06d1 D5070000 		.4byte	.LASF116
 1285 06d5 04       		.byte	0x4
 1286 06d6 600D     		.2byte	0xd60
 1287 06d8 97000000 		.4byte	0x97
 1288 06dc E8       		.byte	0xe8
 1289 06dd 09       		.uleb128 0x9
 1290 06de 74020000 		.4byte	.LASF54
 1291 06e2 04       		.byte	0x4
 1292 06e3 610D     		.2byte	0xd61
 1293 06e5 74070000 		.4byte	0x774
 1294 06e9 EC       		.byte	0xec
 1295 06ea 0A       		.uleb128 0xa
 1296 06eb D0020000 		.4byte	.LASF117
 1297 06ef 04       		.byte	0x4
 1298 06f0 620D     		.2byte	0xd62
 1299 06f2 A7000000 		.4byte	0xa7
 1300 06f6 0001     		.2byte	0x100
 1301 06f8 0A       		.uleb128 0xa
 1302 06f9 33040000 		.4byte	.LASF118
 1303 06fd 04       		.byte	0x4
 1304 06fe 630D     		.2byte	0xd63
 1305 0700 A7000000 		.4byte	0xa7
 1306 0704 0401     		.2byte	0x104
 1307 0706 0A       		.uleb128 0xa
 1308 0707 DB050000 		.4byte	.LASF119
 1309 070b 04       		.byte	0x4
 1310 070c 640D     		.2byte	0xd64
 1311 070e 97000000 		.4byte	0x97
ARM GAS  /tmp/ccdAyFVV.s 			page 24


 1312 0712 0801     		.2byte	0x108
 1313 0714 0A       		.uleb128 0xa
 1314 0715 7E020000 		.4byte	.LASF58
 1315 0719 04       		.byte	0x4
 1316 071a 650D     		.2byte	0xd65
 1317 071c 79070000 		.4byte	0x779
 1318 0720 0C01     		.2byte	0x10c
 1319 0722 0A       		.uleb128 0xa
 1320 0723 A0040000 		.4byte	.LASF120
 1321 0727 04       		.byte	0x4
 1322 0728 660D     		.2byte	0xd66
 1323 072a B2000000 		.4byte	0xb2
 1324 072e 1001     		.2byte	0x110
 1325 0730 00       		.byte	0
 1326 0731 05       		.uleb128 0x5
 1327 0732 D4000000 		.4byte	0xd4
 1328 0736 05       		.uleb128 0x5
 1329 0737 D4000000 		.4byte	0xd4
 1330 073b 05       		.uleb128 0x5
 1331 073c D4000000 		.4byte	0xd4
 1332 0740 05       		.uleb128 0x5
 1333 0741 D4000000 		.4byte	0xd4
 1334 0745 06       		.uleb128 0x6
 1335 0746 5E000000 		.4byte	0x5e
 1336 074a 55070000 		.4byte	0x755
 1337 074e 07       		.uleb128 0x7
 1338 074f BD000000 		.4byte	0xbd
 1339 0753 02       		.byte	0x2
 1340 0754 00       		.byte	0
 1341 0755 05       		.uleb128 0x5
 1342 0756 45070000 		.4byte	0x745
 1343 075a 05       		.uleb128 0x5
 1344 075b F4000000 		.4byte	0xf4
 1345 075f 06       		.uleb128 0x6
 1346 0760 5E000000 		.4byte	0x5e
 1347 0764 6F070000 		.4byte	0x76f
 1348 0768 07       		.uleb128 0x7
 1349 0769 BD000000 		.4byte	0xbd
 1350 076d 19       		.byte	0x19
 1351 076e 00       		.byte	0
 1352 076f 05       		.uleb128 0x5
 1353 0770 5F070000 		.4byte	0x75f
 1354 0774 05       		.uleb128 0x5
 1355 0775 F4000000 		.4byte	0xf4
 1356 0779 05       		.uleb128 0x5
 1357 077a D4000000 		.4byte	0xd4
 1358 077e 0B       		.uleb128 0xb
 1359 077f 506D6300 		.ascii	"Pmc\000"
 1360 0783 04       		.byte	0x4
 1361 0784 670D     		.2byte	0xd67
 1362 0786 63050000 		.4byte	0x563
 1363 078a 08       		.uleb128 0x8
 1364 078b 2801     		.2byte	0x128
 1365 078d 04       		.byte	0x4
 1366 078e 5616     		.2byte	0x1656
 1367 0790 D0040000 		.4byte	.LASF121
 1368 0794 CE080000 		.4byte	0x8ce
ARM GAS  /tmp/ccdAyFVV.s 			page 25


 1369 0798 09       		.uleb128 0x9
 1370 0799 70050000 		.4byte	.LASF122
 1371 079d 04       		.byte	0x4
 1372 079e 5716     		.2byte	0x1657
 1373 07a0 A7000000 		.4byte	0xa7
 1374 07a4 00       		.byte	0
 1375 07a5 09       		.uleb128 0x9
 1376 07a6 DE010000 		.4byte	.LASF123
 1377 07aa 04       		.byte	0x4
 1378 07ab 5816     		.2byte	0x1658
 1379 07ad B2000000 		.4byte	0xb2
 1380 07b1 04       		.byte	0x4
 1381 07b2 09       		.uleb128 0x9
 1382 07b3 09010000 		.4byte	.LASF124
 1383 07b7 04       		.byte	0x4
 1384 07b8 5916     		.2byte	0x1659
 1385 07ba B2000000 		.4byte	0xb2
 1386 07be 08       		.byte	0x8
 1387 07bf 09       		.uleb128 0x9
 1388 07c0 D1060000 		.4byte	.LASF125
 1389 07c4 04       		.byte	0x4
 1390 07c5 5A16     		.2byte	0x165a
 1391 07c7 B2000000 		.4byte	0xb2
 1392 07cb 0C       		.byte	0xc
 1393 07cc 09       		.uleb128 0x9
 1394 07cd 7B070000 		.4byte	.LASF126
 1395 07d1 04       		.byte	0x4
 1396 07d2 5B16     		.2byte	0x165b
 1397 07d4 B2000000 		.4byte	0xb2
 1398 07d8 10       		.byte	0x10
 1399 07d9 09       		.uleb128 0x9
 1400 07da 3E020000 		.4byte	.LASF20
 1401 07de 04       		.byte	0x4
 1402 07df 5C16     		.2byte	0x165c
 1403 07e1 CE080000 		.4byte	0x8ce
 1404 07e5 14       		.byte	0x14
 1405 07e6 09       		.uleb128 0x9
 1406 07e7 1D060000 		.4byte	.LASF127
 1407 07eb 04       		.byte	0x4
 1408 07ec 5D16     		.2byte	0x165d
 1409 07ee 97000000 		.4byte	0x97
 1410 07f2 20       		.byte	0x20
 1411 07f3 09       		.uleb128 0x9
 1412 07f4 7B060000 		.4byte	.LASF128
 1413 07f8 04       		.byte	0x4
 1414 07f9 5E16     		.2byte	0x165e
 1415 07fb A7000000 		.4byte	0xa7
 1416 07ff 24       		.byte	0x24
 1417 0800 09       		.uleb128 0x9
 1418 0801 A1050000 		.4byte	.LASF129
 1419 0805 04       		.byte	0x4
 1420 0806 5F16     		.2byte	0x165f
 1421 0808 A7000000 		.4byte	0xa7
 1422 080c 28       		.byte	0x28
 1423 080d 09       		.uleb128 0x9
 1424 080e C9060000 		.4byte	.LASF130
 1425 0812 04       		.byte	0x4
ARM GAS  /tmp/ccdAyFVV.s 			page 26


 1426 0813 6016     		.2byte	0x1660
 1427 0815 97000000 		.4byte	0x97
 1428 0819 2C       		.byte	0x2c
 1429 081a 09       		.uleb128 0x9
 1430 081b ED040000 		.4byte	.LASF131
 1431 081f 04       		.byte	0x4
 1432 0820 6116     		.2byte	0x1661
 1433 0822 97000000 		.4byte	0x97
 1434 0826 30       		.byte	0x30
 1435 0827 09       		.uleb128 0x9
 1436 0828 C2070000 		.4byte	.LASF132
 1437 082c 04       		.byte	0x4
 1438 082d 6216     		.2byte	0x1662
 1439 082f A7000000 		.4byte	0xa7
 1440 0833 34       		.byte	0x34
 1441 0834 09       		.uleb128 0x9
 1442 0835 48020000 		.4byte	.LASF24
 1443 0839 04       		.byte	0x4
 1444 083a 6316     		.2byte	0x1663
 1445 083c E3080000 		.4byte	0x8e3
 1446 0840 38       		.byte	0x38
 1447 0841 0A       		.uleb128 0xa
 1448 0842 3F050000 		.4byte	.LASF133
 1449 0846 04       		.byte	0x4
 1450 0847 6416     		.2byte	0x1664
 1451 0849 B2000000 		.4byte	0xb2
 1452 084d 0001     		.2byte	0x100
 1453 084f 0A       		.uleb128 0xa
 1454 0850 30070000 		.4byte	.LASF134
 1455 0854 04       		.byte	0x4
 1456 0855 6516     		.2byte	0x1665
 1457 0857 B2000000 		.4byte	0xb2
 1458 085b 0401     		.2byte	0x104
 1459 085d 0A       		.uleb128 0xa
 1460 085e F6020000 		.4byte	.LASF135
 1461 0862 04       		.byte	0x4
 1462 0863 6616     		.2byte	0x1666
 1463 0865 B2000000 		.4byte	0xb2
 1464 0869 0801     		.2byte	0x108
 1465 086b 0A       		.uleb128 0xa
 1466 086c D5040000 		.4byte	.LASF136
 1467 0870 04       		.byte	0x4
 1468 0871 6716     		.2byte	0x1667
 1469 0873 B2000000 		.4byte	0xb2
 1470 0877 0C01     		.2byte	0x10c
 1471 0879 0A       		.uleb128 0xa
 1472 087a AB010000 		.4byte	.LASF137
 1473 087e 04       		.byte	0x4
 1474 087f 6816     		.2byte	0x1668
 1475 0881 B2000000 		.4byte	0xb2
 1476 0885 1001     		.2byte	0x110
 1477 0887 0A       		.uleb128 0xa
 1478 0888 F5030000 		.4byte	.LASF138
 1479 088c 04       		.byte	0x4
 1480 088d 6916     		.2byte	0x1669
 1481 088f B2000000 		.4byte	0xb2
 1482 0893 1401     		.2byte	0x114
ARM GAS  /tmp/ccdAyFVV.s 			page 27


 1483 0895 0A       		.uleb128 0xa
 1484 0896 FD060000 		.4byte	.LASF139
 1485 089a 04       		.byte	0x4
 1486 089b 6A16     		.2byte	0x166a
 1487 089d B2000000 		.4byte	0xb2
 1488 08a1 1801     		.2byte	0x118
 1489 08a3 0A       		.uleb128 0xa
 1490 08a4 2D020000 		.4byte	.LASF140
 1491 08a8 04       		.byte	0x4
 1492 08a9 6B16     		.2byte	0x166b
 1493 08ab B2000000 		.4byte	0xb2
 1494 08af 1C01     		.2byte	0x11c
 1495 08b1 0A       		.uleb128 0xa
 1496 08b2 B6040000 		.4byte	.LASF141
 1497 08b6 04       		.byte	0x4
 1498 08b7 6C16     		.2byte	0x166c
 1499 08b9 A7000000 		.4byte	0xa7
 1500 08bd 2001     		.2byte	0x120
 1501 08bf 0A       		.uleb128 0xa
 1502 08c0 5C050000 		.4byte	.LASF142
 1503 08c4 04       		.byte	0x4
 1504 08c5 6D16     		.2byte	0x166d
 1505 08c7 97000000 		.4byte	0x97
 1506 08cb 2401     		.2byte	0x124
 1507 08cd 00       		.byte	0
 1508 08ce 05       		.uleb128 0x5
 1509 08cf 45070000 		.4byte	0x745
 1510 08d3 06       		.uleb128 0x6
 1511 08d4 5E000000 		.4byte	0x5e
 1512 08d8 E3080000 		.4byte	0x8e3
 1513 08dc 07       		.uleb128 0x7
 1514 08dd BD000000 		.4byte	0xbd
 1515 08e1 31       		.byte	0x31
 1516 08e2 00       		.byte	0
 1517 08e3 05       		.uleb128 0x5
 1518 08e4 D3080000 		.4byte	0x8d3
 1519 08e8 0B       		.uleb128 0xb
 1520 08e9 54776900 		.ascii	"Twi\000"
 1521 08ed 04       		.byte	0x4
 1522 08ee 6E16     		.2byte	0x166e
 1523 08f0 8A070000 		.4byte	0x78a
 1524 08f4 0C       		.uleb128 0xc
 1525 08f5 0A050000 		.4byte	.LASF146
 1526 08f9 0C       		.byte	0xc
 1527 08fa 05       		.byte	0x5
 1528 08fb C8       		.byte	0xc8
 1529 08fc 3C090000 		.4byte	0x93c
 1530 0900 0D       		.uleb128 0xd
 1531 0901 1C030000 		.4byte	.LASF143
 1532 0905 05       		.byte	0x5
 1533 0906 CB       		.byte	0xcb
 1534 0907 8C000000 		.4byte	0x8c
 1535 090b 00       		.byte	0
 1536 090c 0E       		.uleb128 0xe
 1537 090d 70696F00 		.ascii	"pio\000"
 1538 0911 05       		.byte	0x5
 1539 0912 CD       		.byte	0xcd
ARM GAS  /tmp/ccdAyFVV.s 			page 28


 1540 0913 3C090000 		.4byte	0x93c
 1541 0917 04       		.byte	0x4
 1542 0918 0E       		.uleb128 0xe
 1543 0919 696400   		.ascii	"id\000"
 1544 091c 05       		.byte	0x5
 1545 091d CF       		.byte	0xcf
 1546 091e 81000000 		.4byte	0x81
 1547 0922 08       		.byte	0x8
 1548 0923 0D       		.uleb128 0xd
 1549 0924 8E010000 		.4byte	.LASF144
 1550 0928 05       		.byte	0x5
 1551 0929 D1       		.byte	0xd1
 1552 092a 81000000 		.4byte	0x81
 1553 092e 09       		.byte	0x9
 1554 092f 0D       		.uleb128 0xd
 1555 0930 80050000 		.4byte	.LASF145
 1556 0934 05       		.byte	0x5
 1557 0935 D3       		.byte	0xd3
 1558 0936 81000000 		.4byte	0x81
 1559 093a 0A       		.byte	0xa
 1560 093b 00       		.byte	0
 1561 093c 0F       		.uleb128 0xf
 1562 093d 04       		.byte	0x4
 1563 093e 57050000 		.4byte	0x557
 1564 0942 10       		.uleb128 0x10
 1565 0943 50696E00 		.ascii	"Pin\000"
 1566 0947 05       		.byte	0x5
 1567 0948 D4       		.byte	0xd4
 1568 0949 F4080000 		.4byte	0x8f4
 1569 094d 0C       		.uleb128 0xc
 1570 094e FA050000 		.4byte	.LASF147
 1571 0952 18       		.byte	0x18
 1572 0953 06       		.byte	0x6
 1573 0954 3C       		.byte	0x3c
 1574 0955 7E090000 		.4byte	0x97e
 1575 0959 0D       		.uleb128 0xd
 1576 095a 06070000 		.4byte	.LASF148
 1577 095e 06       		.byte	0x6
 1578 095f 3F       		.byte	0x3f
 1579 0960 7E090000 		.4byte	0x97e
 1580 0964 00       		.byte	0
 1581 0965 0D       		.uleb128 0xd
 1582 0966 60040000 		.4byte	.LASF149
 1583 096a 06       		.byte	0x6
 1584 096b 41       		.byte	0x41
 1585 096c 83090000 		.4byte	0x983
 1586 0970 04       		.byte	0x4
 1587 0971 0D       		.uleb128 0xd
 1588 0972 98060000 		.4byte	.LASF150
 1589 0976 06       		.byte	0x6
 1590 0977 43       		.byte	0x43
 1591 0978 04010000 		.4byte	0x104
 1592 097c 08       		.byte	0x8
 1593 097d 00       		.byte	0
 1594 097e 05       		.uleb128 0x5
 1595 097f 81000000 		.4byte	0x81
 1596 0983 11       		.uleb128 0x11
ARM GAS  /tmp/ccdAyFVV.s 			page 29


 1597 0984 04       		.byte	0x4
 1598 0985 03       		.uleb128 0x3
 1599 0986 76040000 		.4byte	.LASF151
 1600 098a 06       		.byte	0x6
 1601 098b 44       		.byte	0x44
 1602 098c 4D090000 		.4byte	0x94d
 1603 0990 0C       		.uleb128 0xc
 1604 0991 45040000 		.4byte	.LASF152
 1605 0995 08       		.byte	0x8
 1606 0996 07       		.byte	0x7
 1607 0997 3B       		.byte	0x3b
 1608 0998 B5090000 		.4byte	0x9b5
 1609 099c 0D       		.uleb128 0xd
 1610 099d A8040000 		.4byte	.LASF153
 1611 09a1 07       		.byte	0x7
 1612 09a2 3E       		.byte	0x3e
 1613 09a3 B5090000 		.4byte	0x9b5
 1614 09a7 00       		.byte	0
 1615 09a8 0D       		.uleb128 0xd
 1616 09a9 52060000 		.4byte	.LASF154
 1617 09ad 07       		.byte	0x7
 1618 09ae 40       		.byte	0x40
 1619 09af BB090000 		.4byte	0x9bb
 1620 09b3 04       		.byte	0x4
 1621 09b4 00       		.byte	0
 1622 09b5 0F       		.uleb128 0xf
 1623 09b6 04       		.byte	0x4
 1624 09b7 E8080000 		.4byte	0x8e8
 1625 09bb 0F       		.uleb128 0xf
 1626 09bc 04       		.byte	0x4
 1627 09bd 85090000 		.4byte	0x985
 1628 09c1 03       		.uleb128 0x3
 1629 09c2 F5050000 		.4byte	.LASF155
 1630 09c6 07       		.byte	0x7
 1631 09c7 41       		.byte	0x41
 1632 09c8 90090000 		.4byte	0x990
 1633 09cc 02       		.uleb128 0x2
 1634 09cd 01       		.byte	0x1
 1635 09ce 08       		.byte	0x8
 1636 09cf 2F060000 		.4byte	.LASF156
 1637 09d3 0F       		.uleb128 0xf
 1638 09d4 04       		.byte	0x4
 1639 09d5 81000000 		.4byte	0x81
 1640 09d9 12       		.uleb128 0x12
 1641 09da 49324300 		.ascii	"I2C\000"
 1642 09de 08       		.byte	0x8
 1643 09df 08       		.byte	0x8
 1644 09e0 1C       		.byte	0x1c
 1645 09e1 D20A0000 		.4byte	0xad2
 1646 09e5 0D       		.uleb128 0xd
 1647 09e6 75070000 		.4byte	.LASF157
 1648 09ea 08       		.byte	0x8
 1649 09eb 2A       		.byte	0x2a
 1650 09ec C1090000 		.4byte	0x9c1
 1651 09f0 00       		.byte	0
 1652 09f1 13       		.uleb128 0x13
 1653 09f2 20050000 		.4byte	.LASF158
ARM GAS  /tmp/ccdAyFVV.s 			page 30


 1654 09f6 08       		.byte	0x8
 1655 09f7 1E       		.byte	0x1e
 1656 09f8 A9050000 		.4byte	.LASF160
 1657 09fc 01       		.byte	0x1
 1658 09fd 050A0000 		.4byte	0xa05
 1659 0a01 0B0A0000 		.4byte	0xa0b
 1660 0a05 14       		.uleb128 0x14
 1661 0a06 D20A0000 		.4byte	0xad2
 1662 0a0a 00       		.byte	0
 1663 0a0b 13       		.uleb128 0x13
 1664 0a0c 52050000 		.4byte	.LASF159
 1665 0a10 08       		.byte	0x8
 1666 0a11 20       		.byte	0x20
 1667 0a12 5E030000 		.4byte	.LASF161
 1668 0a16 01       		.byte	0x1
 1669 0a17 1F0A0000 		.4byte	0xa1f
 1670 0a1b 340A0000 		.4byte	0xa34
 1671 0a1f 14       		.uleb128 0x14
 1672 0a20 D20A0000 		.4byte	0xad2
 1673 0a24 15       		.uleb128 0x15
 1674 0a25 81000000 		.4byte	0x81
 1675 0a29 15       		.uleb128 0x15
 1676 0a2a 81000000 		.4byte	0x81
 1677 0a2e 15       		.uleb128 0x15
 1678 0a2f 81000000 		.4byte	0x81
 1679 0a33 00       		.byte	0
 1680 0a34 13       		.uleb128 0x13
 1681 0a35 52050000 		.4byte	.LASF159
 1682 0a39 08       		.byte	0x8
 1683 0a3a 22       		.byte	0x22
 1684 0a3b DA060000 		.4byte	.LASF162
 1685 0a3f 01       		.byte	0x1
 1686 0a40 480A0000 		.4byte	0xa48
 1687 0a44 580A0000 		.4byte	0xa58
 1688 0a48 14       		.uleb128 0x14
 1689 0a49 D20A0000 		.4byte	0xad2
 1690 0a4d 15       		.uleb128 0x15
 1691 0a4e 81000000 		.4byte	0x81
 1692 0a52 15       		.uleb128 0x15
 1693 0a53 81000000 		.4byte	0x81
 1694 0a57 00       		.byte	0
 1695 0a58 16       		.uleb128 0x16
 1696 0a59 17050000 		.4byte	.LASF163
 1697 0a5d 08       		.byte	0x8
 1698 0a5e 24       		.byte	0x24
 1699 0a5f 40070000 		.4byte	.LASF164
 1700 0a63 81000000 		.4byte	0x81
 1701 0a67 01       		.byte	0x1
 1702 0a68 700A0000 		.4byte	0xa70
 1703 0a6c 800A0000 		.4byte	0xa80
 1704 0a70 14       		.uleb128 0x14
 1705 0a71 D20A0000 		.4byte	0xad2
 1706 0a75 15       		.uleb128 0x15
 1707 0a76 81000000 		.4byte	0x81
 1708 0a7a 15       		.uleb128 0x15
 1709 0a7b 81000000 		.4byte	0x81
 1710 0a7f 00       		.byte	0
ARM GAS  /tmp/ccdAyFVV.s 			page 31


 1711 0a80 16       		.uleb128 0x16
 1712 0a81 17050000 		.4byte	.LASF163
 1713 0a85 08       		.byte	0x8
 1714 0a86 25       		.byte	0x25
 1715 0a87 65010000 		.4byte	.LASF165
 1716 0a8b 81000000 		.4byte	0x81
 1717 0a8f 01       		.byte	0x1
 1718 0a90 980A0000 		.4byte	0xa98
 1719 0a94 A30A0000 		.4byte	0xaa3
 1720 0a98 14       		.uleb128 0x14
 1721 0a99 D20A0000 		.4byte	0xad2
 1722 0a9d 15       		.uleb128 0x15
 1723 0a9e 81000000 		.4byte	0x81
 1724 0aa2 00       		.byte	0
 1725 0aa3 17       		.uleb128 0x17
 1726 0aa4 4B040000 		.4byte	.LASF166
 1727 0aa8 08       		.byte	0x8
 1728 0aa9 26       		.byte	0x26
 1729 0aaa 54070000 		.4byte	.LASF167
 1730 0aae 81000000 		.4byte	0x81
 1731 0ab2 01       		.byte	0x1
 1732 0ab3 B70A0000 		.4byte	0xab7
 1733 0ab7 14       		.uleb128 0x14
 1734 0ab8 D20A0000 		.4byte	0xad2
 1735 0abc 15       		.uleb128 0x15
 1736 0abd 81000000 		.4byte	0x81
 1737 0ac1 15       		.uleb128 0x15
 1738 0ac2 81000000 		.4byte	0x81
 1739 0ac6 15       		.uleb128 0x15
 1740 0ac7 D3090000 		.4byte	0x9d3
 1741 0acb 15       		.uleb128 0x15
 1742 0acc 81000000 		.4byte	0x81
 1743 0ad0 00       		.byte	0
 1744 0ad1 00       		.byte	0
 1745 0ad2 0F       		.uleb128 0xf
 1746 0ad3 04       		.byte	0x4
 1747 0ad4 D9090000 		.4byte	0x9d9
 1748 0ad8 18       		.uleb128 0x18
 1749 0ad9 F1090000 		.4byte	0x9f1
 1750 0add 01       		.byte	0x1
 1751 0ade 21       		.byte	0x21
 1752 0adf 00000000 		.4byte	.LFB7
 1753 0ae3 60000000 		.4byte	.LFE7-.LFB7
 1754 0ae7 01       		.uleb128 0x1
 1755 0ae8 9C       		.byte	0x9c
 1756 0ae9 F10A0000 		.4byte	0xaf1
 1757 0aed 8D0B0000 		.4byte	0xb8d
 1758 0af1 19       		.uleb128 0x19
 1759 0af2 52020000 		.4byte	.LASF168
 1760 0af6 8D0B0000 		.4byte	0xb8d
 1761 0afa 00000000 		.4byte	.LLST0
 1762 0afe 1A       		.uleb128 0x1a
 1763 0aff 04000000 		.4byte	.LBB3
 1764 0b03 06000000 		.4byte	.LBE3-.LBB3
 1765 0b07 190B0000 		.4byte	0xb19
 1766 0b0b 1B       		.uleb128 0x1b
 1767 0b0c 746D7000 		.ascii	"tmp\000"
ARM GAS  /tmp/ccdAyFVV.s 			page 32


 1768 0b10 01       		.byte	0x1
 1769 0b11 23       		.byte	0x23
 1770 0b12 8C000000 		.4byte	0x8c
 1771 0b16 01       		.uleb128 0x1
 1772 0b17 53       		.byte	0x53
 1773 0b18 00       		.byte	0
 1774 0b19 1A       		.uleb128 0x1a
 1775 0b1a 3A000000 		.4byte	.LBB4
 1776 0b1e 26000000 		.4byte	.LBE4-.LBB4
 1777 0b22 340B0000 		.4byte	0xb34
 1778 0b26 1B       		.uleb128 0x1b
 1779 0b27 746D7000 		.ascii	"tmp\000"
 1780 0b2b 01       		.byte	0x1
 1781 0b2c 2A       		.byte	0x2a
 1782 0b2d 8C000000 		.4byte	0x8c
 1783 0b31 01       		.uleb128 0x1
 1784 0b32 53       		.byte	0x53
 1785 0b33 00       		.byte	0
 1786 0b34 1C       		.uleb128 0x1c
 1787 0b35 12000000 		.4byte	.LVL2
 1788 0b39 690F0000 		.4byte	0xf69
 1789 0b3d 500B0000 		.4byte	0xb50
 1790 0b41 1D       		.uleb128 0x1d
 1791 0b42 01       		.uleb128 0x1
 1792 0b43 51       		.byte	0x51
 1793 0b44 01       		.uleb128 0x1
 1794 0b45 32       		.byte	0x32
 1795 0b46 1D       		.uleb128 0x1d
 1796 0b47 01       		.uleb128 0x1
 1797 0b48 50       		.byte	0x50
 1798 0b49 05       		.uleb128 0x5
 1799 0b4a 03       		.byte	0x3
 1800 0b4b 00000000 		.4byte	.LANCHOR0
 1801 0b4f 00       		.byte	0
 1802 0b50 1C       		.uleb128 0x1c
 1803 0b51 32000000 		.4byte	.LVL3
 1804 0b55 8E0F0000 		.4byte	0xf8e
 1805 0b59 760B0000 		.4byte	0xb76
 1806 0b5d 1D       		.uleb128 0x1d
 1807 0b5e 01       		.uleb128 0x1
 1808 0b5f 52       		.byte	0x52
 1809 0b60 05       		.uleb128 0x5
 1810 0b61 0C       		.byte	0xc
 1811 0b62 0090D003 		.4byte	0x3d09000
 1812 0b66 1D       		.uleb128 0x1d
 1813 0b67 01       		.uleb128 0x1
 1814 0b68 51       		.byte	0x51
 1815 0b69 05       		.uleb128 0x5
 1816 0b6a 0C       		.byte	0xc
 1817 0b6b A0860100 		.4byte	0x186a0
 1818 0b6f 1D       		.uleb128 0x1d
 1819 0b70 01       		.uleb128 0x1
 1820 0b71 50       		.byte	0x50
 1821 0b72 02       		.uleb128 0x2
 1822 0b73 74       		.byte	0x74
 1823 0b74 00       		.sleb128 0
 1824 0b75 00       		.byte	0
ARM GAS  /tmp/ccdAyFVV.s 			page 33


 1825 0b76 1E       		.uleb128 0x1e
 1826 0b77 3A000000 		.4byte	.LVL4
 1827 0b7b A90F0000 		.4byte	0xfa9
 1828 0b7f 1D       		.uleb128 0x1d
 1829 0b80 01       		.uleb128 0x1
 1830 0b81 51       		.byte	0x51
 1831 0b82 02       		.uleb128 0x2
 1832 0b83 74       		.byte	0x74
 1833 0b84 00       		.sleb128 0
 1834 0b85 1D       		.uleb128 0x1d
 1835 0b86 01       		.uleb128 0x1
 1836 0b87 50       		.byte	0x50
 1837 0b88 02       		.uleb128 0x2
 1838 0b89 75       		.byte	0x75
 1839 0b8a 00       		.sleb128 0
 1840 0b8b 00       		.byte	0
 1841 0b8c 00       		.byte	0
 1842 0b8d 1F       		.uleb128 0x1f
 1843 0b8e D20A0000 		.4byte	0xad2
 1844 0b92 18       		.uleb128 0x18
 1845 0b93 0B0A0000 		.4byte	0xa0b
 1846 0b97 01       		.byte	0x1
 1847 0b98 2D       		.byte	0x2d
 1848 0b99 00000000 		.4byte	.LFB8
 1849 0b9d 28000000 		.4byte	.LFE8-.LFB8
 1850 0ba1 01       		.uleb128 0x1
 1851 0ba2 9C       		.byte	0x9c
 1852 0ba3 AB0B0000 		.4byte	0xbab
 1853 0ba7 460C0000 		.4byte	0xc46
 1854 0bab 19       		.uleb128 0x19
 1855 0bac 52020000 		.4byte	.LASF168
 1856 0bb0 8D0B0000 		.4byte	0xb8d
 1857 0bb4 2C000000 		.4byte	.LLST1
 1858 0bb8 20       		.uleb128 0x20
 1859 0bb9 C8040000 		.4byte	.LASF169
 1860 0bbd 01       		.byte	0x1
 1861 0bbe 2D       		.byte	0x2d
 1862 0bbf 81000000 		.4byte	0x81
 1863 0bc3 4D000000 		.4byte	.LLST2
 1864 0bc7 20       		.uleb128 0x20
 1865 0bc8 CA070000 		.4byte	.LASF170
 1866 0bcc 01       		.byte	0x1
 1867 0bcd 2D       		.byte	0x2d
 1868 0bce 81000000 		.4byte	0x81
 1869 0bd2 6E000000 		.4byte	.LLST3
 1870 0bd6 20       		.uleb128 0x20
 1871 0bd7 08040000 		.4byte	.LASF171
 1872 0bdb 01       		.byte	0x1
 1873 0bdc 2D       		.byte	0x2d
 1874 0bdd 81000000 		.4byte	0x81
 1875 0be1 8F000000 		.4byte	.LLST4
 1876 0be5 1A       		.uleb128 0x1a
 1877 0be6 0A000000 		.4byte	.LBB6
 1878 0bea 06000000 		.4byte	.LBE6-.LBB6
 1879 0bee 000C0000 		.4byte	0xc00
 1880 0bf2 1B       		.uleb128 0x1b
 1881 0bf3 746D7000 		.ascii	"tmp\000"
ARM GAS  /tmp/ccdAyFVV.s 			page 34


 1882 0bf7 01       		.byte	0x1
 1883 0bf8 2F       		.byte	0x2f
 1884 0bf9 8C000000 		.4byte	0x8c
 1885 0bfd 01       		.uleb128 0x1
 1886 0bfe 53       		.byte	0x53
 1887 0bff 00       		.byte	0
 1888 0c00 1A       		.uleb128 0x1a
 1889 0c01 1E000000 		.4byte	.LBB7
 1890 0c05 06000000 		.4byte	.LBE7-.LBB7
 1891 0c09 1B0C0000 		.4byte	0xc1b
 1892 0c0d 1B       		.uleb128 0x1b
 1893 0c0e 746D7000 		.ascii	"tmp\000"
 1894 0c12 01       		.byte	0x1
 1895 0c13 31       		.byte	0x31
 1896 0c14 8C000000 		.4byte	0x8c
 1897 0c18 01       		.uleb128 0x1
 1898 0c19 53       		.byte	0x53
 1899 0c1a 00       		.byte	0
 1900 0c1b 1E       		.uleb128 0x1e
 1901 0c1c 1E000000 		.4byte	.LVL8
 1902 0c20 C50F0000 		.4byte	0xfc5
 1903 0c24 1D       		.uleb128 0x1d
 1904 0c25 01       		.uleb128 0x1
 1905 0c26 53       		.byte	0x53
 1906 0c27 01       		.uleb128 0x1
 1907 0c28 31       		.byte	0x31
 1908 0c29 1D       		.uleb128 0x1d
 1909 0c2a 01       		.uleb128 0x1
 1910 0c2b 50       		.byte	0x50
 1911 0c2c 03       		.uleb128 0x3
 1912 0c2d F3       		.byte	0xf3
 1913 0c2e 01       		.uleb128 0x1
 1914 0c2f 50       		.byte	0x50
 1915 0c30 1D       		.uleb128 0x1d
 1916 0c31 02       		.uleb128 0x2
 1917 0c32 7D       		.byte	0x7d
 1918 0c33 08       		.sleb128 8
 1919 0c34 02       		.uleb128 0x2
 1920 0c35 75       		.byte	0x75
 1921 0c36 00       		.sleb128 0
 1922 0c37 1D       		.uleb128 0x1d
 1923 0c38 02       		.uleb128 0x2
 1924 0c39 7D       		.byte	0x7d
 1925 0c3a 04       		.sleb128 4
 1926 0c3b 01       		.uleb128 0x1
 1927 0c3c 31       		.byte	0x31
 1928 0c3d 1D       		.uleb128 0x1d
 1929 0c3e 02       		.uleb128 0x2
 1930 0c3f 7D       		.byte	0x7d
 1931 0c40 00       		.sleb128 0
 1932 0c41 02       		.uleb128 0x2
 1933 0c42 74       		.byte	0x74
 1934 0c43 00       		.sleb128 0
 1935 0c44 00       		.byte	0
 1936 0c45 00       		.byte	0
 1937 0c46 18       		.uleb128 0x18
 1938 0c47 340A0000 		.4byte	0xa34
ARM GAS  /tmp/ccdAyFVV.s 			page 35


 1939 0c4b 01       		.byte	0x1
 1940 0c4c 34       		.byte	0x34
 1941 0c4d 00000000 		.4byte	.LFB9
 1942 0c51 2C000000 		.4byte	.LFE9-.LFB9
 1943 0c55 01       		.uleb128 0x1
 1944 0c56 9C       		.byte	0x9c
 1945 0c57 5F0C0000 		.4byte	0xc5f
 1946 0c5b EE0C0000 		.4byte	0xcee
 1947 0c5f 19       		.uleb128 0x19
 1948 0c60 52020000 		.4byte	.LASF168
 1949 0c64 8D0B0000 		.4byte	0xb8d
 1950 0c68 AE000000 		.4byte	.LLST5
 1951 0c6c 20       		.uleb128 0x20
 1952 0c6d C8040000 		.4byte	.LASF169
 1953 0c71 01       		.byte	0x1
 1954 0c72 34       		.byte	0x34
 1955 0c73 81000000 		.4byte	0x81
 1956 0c77 CF000000 		.4byte	.LLST6
 1957 0c7b 20       		.uleb128 0x20
 1958 0c7c 08040000 		.4byte	.LASF171
 1959 0c80 01       		.byte	0x1
 1960 0c81 34       		.byte	0x34
 1961 0c82 81000000 		.4byte	0x81
 1962 0c86 F0000000 		.4byte	.LLST7
 1963 0c8a 21       		.uleb128 0x21
 1964 0c8b 00000000 		.4byte	.Ldebug_ranges0+0
 1965 0c8f A10C0000 		.4byte	0xca1
 1966 0c93 1B       		.uleb128 0x1b
 1967 0c94 746D7000 		.ascii	"tmp\000"
 1968 0c98 01       		.byte	0x1
 1969 0c99 36       		.byte	0x36
 1970 0c9a 8C000000 		.4byte	0x8c
 1971 0c9e 01       		.uleb128 0x1
 1972 0c9f 53       		.byte	0x53
 1973 0ca0 00       		.byte	0
 1974 0ca1 1A       		.uleb128 0x1a
 1975 0ca2 22000000 		.4byte	.LBB11
 1976 0ca6 06000000 		.4byte	.LBE11-.LBB11
 1977 0caa BC0C0000 		.4byte	0xcbc
 1978 0cae 1B       		.uleb128 0x1b
 1979 0caf 746D7000 		.ascii	"tmp\000"
 1980 0cb3 01       		.byte	0x1
 1981 0cb4 38       		.byte	0x38
 1982 0cb5 8C000000 		.4byte	0x8c
 1983 0cb9 01       		.uleb128 0x1
 1984 0cba 53       		.byte	0x53
 1985 0cbb 00       		.byte	0
 1986 0cbc 1E       		.uleb128 0x1e
 1987 0cbd 22000000 		.4byte	.LVL11
 1988 0cc1 C50F0000 		.4byte	0xfc5
 1989 0cc5 1D       		.uleb128 0x1d
 1990 0cc6 01       		.uleb128 0x1
 1991 0cc7 53       		.byte	0x53
 1992 0cc8 02       		.uleb128 0x2
 1993 0cc9 74       		.byte	0x74
 1994 0cca 00       		.sleb128 0
 1995 0ccb 1D       		.uleb128 0x1d
ARM GAS  /tmp/ccdAyFVV.s 			page 36


 1996 0ccc 01       		.uleb128 0x1
 1997 0ccd 52       		.byte	0x52
 1998 0cce 02       		.uleb128 0x2
 1999 0ccf 74       		.byte	0x74
 2000 0cd0 00       		.sleb128 0
 2001 0cd1 1D       		.uleb128 0x1d
 2002 0cd2 01       		.uleb128 0x1
 2003 0cd3 50       		.byte	0x50
 2004 0cd4 03       		.uleb128 0x3
 2005 0cd5 F3       		.byte	0xf3
 2006 0cd6 01       		.uleb128 0x1
 2007 0cd7 50       		.byte	0x50
 2008 0cd8 1D       		.uleb128 0x1d
 2009 0cd9 02       		.uleb128 0x2
 2010 0cda 7D       		.byte	0x7d
 2011 0cdb 08       		.sleb128 8
 2012 0cdc 02       		.uleb128 0x2
 2013 0cdd 74       		.byte	0x74
 2014 0cde 00       		.sleb128 0
 2015 0cdf 1D       		.uleb128 0x1d
 2016 0ce0 02       		.uleb128 0x2
 2017 0ce1 7D       		.byte	0x7d
 2018 0ce2 04       		.sleb128 4
 2019 0ce3 01       		.uleb128 0x1
 2020 0ce4 31       		.byte	0x31
 2021 0ce5 1D       		.uleb128 0x1d
 2022 0ce6 02       		.uleb128 0x2
 2023 0ce7 7D       		.byte	0x7d
 2024 0ce8 00       		.sleb128 0
 2025 0ce9 02       		.uleb128 0x2
 2026 0cea 75       		.byte	0x75
 2027 0ceb 00       		.sleb128 0
 2028 0cec 00       		.byte	0
 2029 0ced 00       		.byte	0
 2030 0cee 18       		.uleb128 0x18
 2031 0cef 580A0000 		.4byte	0xa58
 2032 0cf3 01       		.byte	0x1
 2033 0cf4 3B       		.byte	0x3b
 2034 0cf5 00000000 		.4byte	.LFB10
 2035 0cf9 2E000000 		.4byte	.LFE10-.LFB10
 2036 0cfd 01       		.uleb128 0x1
 2037 0cfe 9C       		.byte	0x9c
 2038 0cff 070D0000 		.4byte	0xd07
 2039 0d03 B00D0000 		.4byte	0xdb0
 2040 0d07 19       		.uleb128 0x19
 2041 0d08 52020000 		.4byte	.LASF168
 2042 0d0c 8D0B0000 		.4byte	0xb8d
 2043 0d10 0F010000 		.4byte	.LLST8
 2044 0d14 20       		.uleb128 0x20
 2045 0d15 C8040000 		.4byte	.LASF169
 2046 0d19 01       		.byte	0x1
 2047 0d1a 3B       		.byte	0x3b
 2048 0d1b 81000000 		.4byte	0x81
 2049 0d1f 30010000 		.4byte	.LLST9
 2050 0d23 20       		.uleb128 0x20
 2051 0d24 CA070000 		.4byte	.LASF170
 2052 0d28 01       		.byte	0x1
ARM GAS  /tmp/ccdAyFVV.s 			page 37


 2053 0d29 3B       		.byte	0x3b
 2054 0d2a 81000000 		.4byte	0x81
 2055 0d2e 51010000 		.4byte	.LLST10
 2056 0d32 22       		.uleb128 0x22
 2057 0d33 18000000 		.4byte	.Ldebug_ranges0+0x18
 2058 0d37 1B       		.uleb128 0x1b
 2059 0d38 72657400 		.ascii	"ret\000"
 2060 0d3c 01       		.byte	0x1
 2061 0d3d 3E       		.byte	0x3e
 2062 0d3e 81000000 		.4byte	0x81
 2063 0d42 01       		.uleb128 0x1
 2064 0d43 56       		.byte	0x56
 2065 0d44 23       		.uleb128 0x23
 2066 0d45 08040000 		.4byte	.LASF171
 2067 0d49 01       		.byte	0x1
 2068 0d4a 3F       		.byte	0x3f
 2069 0d4b 81000000 		.4byte	0x81
 2070 0d4f 02       		.uleb128 0x2
 2071 0d50 91       		.byte	0x91
 2072 0d51 6F       		.sleb128 -17
 2073 0d52 21       		.uleb128 0x21
 2074 0d53 30000000 		.4byte	.Ldebug_ranges0+0x30
 2075 0d57 690D0000 		.4byte	0xd69
 2076 0d5b 1B       		.uleb128 0x1b
 2077 0d5c 746D7000 		.ascii	"tmp\000"
 2078 0d60 01       		.byte	0x1
 2079 0d61 3D       		.byte	0x3d
 2080 0d62 8C000000 		.4byte	0x8c
 2081 0d66 01       		.uleb128 0x1
 2082 0d67 53       		.byte	0x53
 2083 0d68 00       		.byte	0
 2084 0d69 1A       		.uleb128 0x1a
 2085 0d6a 22000000 		.4byte	.LBB16
 2086 0d6e 06000000 		.4byte	.LBE16-.LBB16
 2087 0d72 840D0000 		.4byte	0xd84
 2088 0d76 1B       		.uleb128 0x1b
 2089 0d77 746D7000 		.ascii	"tmp\000"
 2090 0d7b 01       		.byte	0x1
 2091 0d7c 42       		.byte	0x42
 2092 0d7d 8C000000 		.4byte	0x8c
 2093 0d81 01       		.uleb128 0x1
 2094 0d82 53       		.byte	0x53
 2095 0d83 00       		.byte	0
 2096 0d84 1E       		.uleb128 0x1e
 2097 0d85 1C000000 		.4byte	.LVL13
 2098 0d89 F80F0000 		.4byte	0xff8
 2099 0d8d 1D       		.uleb128 0x1d
 2100 0d8e 01       		.uleb128 0x1
 2101 0d8f 53       		.byte	0x53
 2102 0d90 01       		.uleb128 0x1
 2103 0d91 31       		.byte	0x31
 2104 0d92 1D       		.uleb128 0x1d
 2105 0d93 01       		.uleb128 0x1
 2106 0d94 50       		.byte	0x50
 2107 0d95 03       		.uleb128 0x3
 2108 0d96 F3       		.byte	0xf3
 2109 0d97 01       		.uleb128 0x1
ARM GAS  /tmp/ccdAyFVV.s 			page 38


 2110 0d98 50       		.byte	0x50
 2111 0d99 1D       		.uleb128 0x1d
 2112 0d9a 02       		.uleb128 0x2
 2113 0d9b 7D       		.byte	0x7d
 2114 0d9c 08       		.sleb128 8
 2115 0d9d 02       		.uleb128 0x2
 2116 0d9e 74       		.byte	0x74
 2117 0d9f 00       		.sleb128 0
 2118 0da0 1D       		.uleb128 0x1d
 2119 0da1 02       		.uleb128 0x2
 2120 0da2 7D       		.byte	0x7d
 2121 0da3 04       		.sleb128 4
 2122 0da4 01       		.uleb128 0x1
 2123 0da5 31       		.byte	0x31
 2124 0da6 1D       		.uleb128 0x1d
 2125 0da7 02       		.uleb128 0x2
 2126 0da8 7D       		.byte	0x7d
 2127 0da9 00       		.sleb128 0
 2128 0daa 02       		.uleb128 0x2
 2129 0dab 75       		.byte	0x75
 2130 0dac 00       		.sleb128 0
 2131 0dad 00       		.byte	0
 2132 0dae 00       		.byte	0
 2133 0daf 00       		.byte	0
 2134 0db0 18       		.uleb128 0x18
 2135 0db1 800A0000 		.4byte	0xa80
 2136 0db5 01       		.byte	0x1
 2137 0db6 46       		.byte	0x46
 2138 0db7 00000000 		.4byte	.LFB11
 2139 0dbb 30000000 		.4byte	.LFE11-.LFB11
 2140 0dbf 01       		.uleb128 0x1
 2141 0dc0 9C       		.byte	0x9c
 2142 0dc1 C90D0000 		.4byte	0xdc9
 2143 0dc5 670E0000 		.4byte	0xe67
 2144 0dc9 19       		.uleb128 0x19
 2145 0dca 52020000 		.4byte	.LASF168
 2146 0dce 8D0B0000 		.4byte	0xb8d
 2147 0dd2 72010000 		.4byte	.LLST11
 2148 0dd6 20       		.uleb128 0x20
 2149 0dd7 C8040000 		.4byte	.LASF169
 2150 0ddb 01       		.byte	0x1
 2151 0ddc 46       		.byte	0x46
 2152 0ddd 81000000 		.4byte	0x81
 2153 0de1 93010000 		.4byte	.LLST12
 2154 0de5 22       		.uleb128 0x22
 2155 0de6 48000000 		.4byte	.Ldebug_ranges0+0x48
 2156 0dea 1B       		.uleb128 0x1b
 2157 0deb 72657400 		.ascii	"ret\000"
 2158 0def 01       		.byte	0x1
 2159 0df0 49       		.byte	0x49
 2160 0df1 81000000 		.4byte	0x81
 2161 0df5 01       		.uleb128 0x1
 2162 0df6 55       		.byte	0x55
 2163 0df7 23       		.uleb128 0x23
 2164 0df8 08040000 		.4byte	.LASF171
 2165 0dfc 01       		.byte	0x1
 2166 0dfd 4A       		.byte	0x4a
ARM GAS  /tmp/ccdAyFVV.s 			page 39


 2167 0dfe 81000000 		.4byte	0x81
 2168 0e02 02       		.uleb128 0x2
 2169 0e03 91       		.byte	0x91
 2170 0e04 6F       		.sleb128 -17
 2171 0e05 21       		.uleb128 0x21
 2172 0e06 60000000 		.4byte	.Ldebug_ranges0+0x60
 2173 0e0a 1C0E0000 		.4byte	0xe1c
 2174 0e0e 1B       		.uleb128 0x1b
 2175 0e0f 746D7000 		.ascii	"tmp\000"
 2176 0e13 01       		.byte	0x1
 2177 0e14 48       		.byte	0x48
 2178 0e15 8C000000 		.4byte	0x8c
 2179 0e19 01       		.uleb128 0x1
 2180 0e1a 53       		.byte	0x53
 2181 0e1b 00       		.byte	0
 2182 0e1c 1A       		.uleb128 0x1a
 2183 0e1d 24000000 		.4byte	.LBB21
 2184 0e21 06000000 		.4byte	.LBE21-.LBB21
 2185 0e25 370E0000 		.4byte	0xe37
 2186 0e29 1B       		.uleb128 0x1b
 2187 0e2a 746D7000 		.ascii	"tmp\000"
 2188 0e2e 01       		.byte	0x1
 2189 0e2f 4D       		.byte	0x4d
 2190 0e30 8C000000 		.4byte	0x8c
 2191 0e34 01       		.uleb128 0x1
 2192 0e35 53       		.byte	0x53
 2193 0e36 00       		.byte	0
 2194 0e37 1E       		.uleb128 0x1e
 2195 0e38 1E000000 		.4byte	.LVL16
 2196 0e3c F80F0000 		.4byte	0xff8
 2197 0e40 1D       		.uleb128 0x1d
 2198 0e41 01       		.uleb128 0x1
 2199 0e42 53       		.byte	0x53
 2200 0e43 01       		.uleb128 0x1
 2201 0e44 30       		.byte	0x30
 2202 0e45 1D       		.uleb128 0x1d
 2203 0e46 01       		.uleb128 0x1
 2204 0e47 52       		.byte	0x52
 2205 0e48 01       		.uleb128 0x1
 2206 0e49 30       		.byte	0x30
 2207 0e4a 1D       		.uleb128 0x1d
 2208 0e4b 01       		.uleb128 0x1
 2209 0e4c 50       		.byte	0x50
 2210 0e4d 03       		.uleb128 0x3
 2211 0e4e F3       		.byte	0xf3
 2212 0e4f 01       		.uleb128 0x1
 2213 0e50 50       		.byte	0x50
 2214 0e51 1D       		.uleb128 0x1d
 2215 0e52 02       		.uleb128 0x2
 2216 0e53 7D       		.byte	0x7d
 2217 0e54 08       		.sleb128 8
 2218 0e55 01       		.uleb128 0x1
 2219 0e56 30       		.byte	0x30
 2220 0e57 1D       		.uleb128 0x1d
 2221 0e58 02       		.uleb128 0x2
 2222 0e59 7D       		.byte	0x7d
 2223 0e5a 04       		.sleb128 4
ARM GAS  /tmp/ccdAyFVV.s 			page 40


 2224 0e5b 01       		.uleb128 0x1
 2225 0e5c 31       		.byte	0x31
 2226 0e5d 1D       		.uleb128 0x1d
 2227 0e5e 02       		.uleb128 0x2
 2228 0e5f 7D       		.byte	0x7d
 2229 0e60 00       		.sleb128 0
 2230 0e61 02       		.uleb128 0x2
 2231 0e62 74       		.byte	0x74
 2232 0e63 00       		.sleb128 0
 2233 0e64 00       		.byte	0
 2234 0e65 00       		.byte	0
 2235 0e66 00       		.byte	0
 2236 0e67 18       		.uleb128 0x18
 2237 0e68 A30A0000 		.4byte	0xaa3
 2238 0e6c 01       		.byte	0x1
 2239 0e6d 51       		.byte	0x51
 2240 0e6e 00000000 		.4byte	.LFB12
 2241 0e72 30000000 		.4byte	.LFE12-.LFB12
 2242 0e76 01       		.uleb128 0x1
 2243 0e77 9C       		.byte	0x9c
 2244 0e78 800E0000 		.4byte	0xe80
 2245 0e7c 430F0000 		.4byte	0xf43
 2246 0e80 19       		.uleb128 0x19
 2247 0e81 52020000 		.4byte	.LASF168
 2248 0e85 8D0B0000 		.4byte	0xb8d
 2249 0e89 B4010000 		.4byte	.LLST13
 2250 0e8d 20       		.uleb128 0x20
 2251 0e8e C8040000 		.4byte	.LASF169
 2252 0e92 01       		.byte	0x1
 2253 0e93 51       		.byte	0x51
 2254 0e94 81000000 		.4byte	0x81
 2255 0e98 D5010000 		.4byte	.LLST14
 2256 0e9c 20       		.uleb128 0x20
 2257 0e9d CA070000 		.4byte	.LASF170
 2258 0ea1 01       		.byte	0x1
 2259 0ea2 51       		.byte	0x51
 2260 0ea3 81000000 		.4byte	0x81
 2261 0ea7 F6010000 		.4byte	.LLST15
 2262 0eab 20       		.uleb128 0x20
 2263 0eac F5040000 		.4byte	.LASF172
 2264 0eb0 01       		.byte	0x1
 2265 0eb1 51       		.byte	0x51
 2266 0eb2 D3090000 		.4byte	0x9d3
 2267 0eb6 17020000 		.4byte	.LLST16
 2268 0eba 24       		.uleb128 0x24
 2269 0ebb 00000000 		.4byte	.LASF173
 2270 0ebf 01       		.byte	0x1
 2271 0ec0 52       		.byte	0x52
 2272 0ec1 81000000 		.4byte	0x81
 2273 0ec5 02       		.uleb128 0x2
 2274 0ec6 91       		.byte	0x91
 2275 0ec7 00       		.sleb128 0
 2276 0ec8 25       		.uleb128 0x25
 2277 0ec9 0A000000 		.4byte	.LBB23
 2278 0ecd 20000000 		.4byte	.LBE23-.LBB23
 2279 0ed1 26       		.uleb128 0x26
 2280 0ed2 72657400 		.ascii	"ret\000"
ARM GAS  /tmp/ccdAyFVV.s 			page 41


 2281 0ed6 01       		.byte	0x1
 2282 0ed7 54       		.byte	0x54
 2283 0ed8 81000000 		.4byte	0x81
 2284 0edc 35020000 		.4byte	.LLST17
 2285 0ee0 1A       		.uleb128 0x1a
 2286 0ee1 0A000000 		.4byte	.LBB24
 2287 0ee5 06000000 		.4byte	.LBE24-.LBB24
 2288 0ee9 FB0E0000 		.4byte	0xefb
 2289 0eed 1B       		.uleb128 0x1b
 2290 0eee 746D7000 		.ascii	"tmp\000"
 2291 0ef2 01       		.byte	0x1
 2292 0ef3 53       		.byte	0x53
 2293 0ef4 8C000000 		.4byte	0x8c
 2294 0ef8 01       		.uleb128 0x1
 2295 0ef9 53       		.byte	0x53
 2296 0efa 00       		.byte	0
 2297 0efb 1A       		.uleb128 0x1a
 2298 0efc 24000000 		.4byte	.LBB25
 2299 0f00 06000000 		.4byte	.LBE25-.LBB25
 2300 0f04 160F0000 		.4byte	0xf16
 2301 0f08 1B       		.uleb128 0x1b
 2302 0f09 746D7000 		.ascii	"tmp\000"
 2303 0f0d 01       		.byte	0x1
 2304 0f0e 59       		.byte	0x59
 2305 0f0f 8C000000 		.4byte	0x8c
 2306 0f13 01       		.uleb128 0x1
 2307 0f14 53       		.byte	0x53
 2308 0f15 00       		.byte	0
 2309 0f16 1E       		.uleb128 0x1e
 2310 0f17 1E000000 		.4byte	.LVL21
 2311 0f1b F80F0000 		.4byte	0xff8
 2312 0f1f 1D       		.uleb128 0x1d
 2313 0f20 01       		.uleb128 0x1
 2314 0f21 53       		.byte	0x53
 2315 0f22 01       		.uleb128 0x1
 2316 0f23 31       		.byte	0x31
 2317 0f24 1D       		.uleb128 0x1d
 2318 0f25 01       		.uleb128 0x1
 2319 0f26 50       		.byte	0x50
 2320 0f27 03       		.uleb128 0x3
 2321 0f28 F3       		.byte	0xf3
 2322 0f29 01       		.uleb128 0x1
 2323 0f2a 50       		.byte	0x50
 2324 0f2b 1D       		.uleb128 0x1d
 2325 0f2c 02       		.uleb128 0x2
 2326 0f2d 7D       		.byte	0x7d
 2327 0f2e 08       		.sleb128 8
 2328 0f2f 02       		.uleb128 0x2
 2329 0f30 75       		.byte	0x75
 2330 0f31 00       		.sleb128 0
 2331 0f32 1D       		.uleb128 0x1d
 2332 0f33 02       		.uleb128 0x2
 2333 0f34 7D       		.byte	0x7d
 2334 0f35 04       		.sleb128 4
 2335 0f36 02       		.uleb128 0x2
 2336 0f37 74       		.byte	0x74
 2337 0f38 00       		.sleb128 0
ARM GAS  /tmp/ccdAyFVV.s 			page 42


 2338 0f39 1D       		.uleb128 0x1d
 2339 0f3a 02       		.uleb128 0x2
 2340 0f3b 7D       		.byte	0x7d
 2341 0f3c 00       		.sleb128 0
 2342 0f3d 02       		.uleb128 0x2
 2343 0f3e 76       		.byte	0x76
 2344 0f3f 00       		.sleb128 0
 2345 0f40 00       		.byte	0
 2346 0f41 00       		.byte	0
 2347 0f42 00       		.byte	0
 2348 0f43 06       		.uleb128 0x6
 2349 0f44 F4080000 		.4byte	0x8f4
 2350 0f48 530F0000 		.4byte	0xf53
 2351 0f4c 07       		.uleb128 0x7
 2352 0f4d BD000000 		.4byte	0xbd
 2353 0f51 01       		.byte	0x1
 2354 0f52 00       		.byte	0
 2355 0f53 23       		.uleb128 0x23
 2356 0f54 F8060000 		.4byte	.LASF174
 2357 0f58 01       		.byte	0x1
 2358 0f59 1F       		.byte	0x1f
 2359 0f5a 640F0000 		.4byte	0xf64
 2360 0f5e 05       		.uleb128 0x5
 2361 0f5f 03       		.byte	0x3
 2362 0f60 00000000 		.4byte	_ZL4pins
 2363 0f64 1F       		.uleb128 0x1f
 2364 0f65 430F0000 		.4byte	0xf43
 2365 0f69 27       		.uleb128 0x27
 2366 0f6a 93010000 		.4byte	.LASF177
 2367 0f6e 05       		.byte	0x5
 2368 0f6f DE       		.byte	0xde
 2369 0f70 81000000 		.4byte	0x81
 2370 0f74 830F0000 		.4byte	0xf83
 2371 0f78 15       		.uleb128 0x15
 2372 0f79 830F0000 		.4byte	0xf83
 2373 0f7d 15       		.uleb128 0x15
 2374 0f7e 8C000000 		.4byte	0x8c
 2375 0f82 00       		.byte	0
 2376 0f83 0F       		.uleb128 0xf
 2377 0f84 04       		.byte	0x4
 2378 0f85 890F0000 		.4byte	0xf89
 2379 0f89 1F       		.uleb128 0x1f
 2380 0f8a 42090000 		.4byte	0x942
 2381 0f8e 28       		.uleb128 0x28
 2382 0f8f 34060000 		.4byte	.LASF175
 2383 0f93 09       		.byte	0x9
 2384 0f94 44       		.byte	0x44
 2385 0f95 A90F0000 		.4byte	0xfa9
 2386 0f99 15       		.uleb128 0x15
 2387 0f9a B5090000 		.4byte	0x9b5
 2388 0f9e 15       		.uleb128 0x15
 2389 0f9f 8C000000 		.4byte	0x8c
 2390 0fa3 15       		.uleb128 0x15
 2391 0fa4 8C000000 		.4byte	0x8c
 2392 0fa8 00       		.byte	0
 2393 0fa9 28       		.uleb128 0x28
 2394 0faa AD020000 		.4byte	.LASF176
ARM GAS  /tmp/ccdAyFVV.s 			page 43


 2395 0fae 07       		.byte	0x7
 2396 0faf 46       		.byte	0x46
 2397 0fb0 BF0F0000 		.4byte	0xfbf
 2398 0fb4 15       		.uleb128 0x15
 2399 0fb5 BF0F0000 		.4byte	0xfbf
 2400 0fb9 15       		.uleb128 0x15
 2401 0fba B5090000 		.4byte	0x9b5
 2402 0fbe 00       		.byte	0
 2403 0fbf 0F       		.uleb128 0xf
 2404 0fc0 04       		.byte	0x4
 2405 0fc1 C1090000 		.4byte	0x9c1
 2406 0fc5 27       		.uleb128 0x27
 2407 0fc6 67060000 		.4byte	.LASF178
 2408 0fca 07       		.byte	0x7
 2409 0fcb 53       		.byte	0x53
 2410 0fcc 81000000 		.4byte	0x81
 2411 0fd0 F80F0000 		.4byte	0xff8
 2412 0fd4 15       		.uleb128 0x15
 2413 0fd5 BF0F0000 		.4byte	0xfbf
 2414 0fd9 15       		.uleb128 0x15
 2415 0fda 81000000 		.4byte	0x81
 2416 0fde 15       		.uleb128 0x15
 2417 0fdf 8C000000 		.4byte	0x8c
 2418 0fe3 15       		.uleb128 0x15
 2419 0fe4 81000000 		.4byte	0x81
 2420 0fe8 15       		.uleb128 0x15
 2421 0fe9 D3090000 		.4byte	0x9d3
 2422 0fed 15       		.uleb128 0x15
 2423 0fee 8C000000 		.4byte	0x8c
 2424 0ff2 15       		.uleb128 0x15
 2425 0ff3 BB090000 		.4byte	0x9bb
 2426 0ff7 00       		.byte	0
 2427 0ff8 29       		.uleb128 0x29
 2428 0ff9 DD040000 		.4byte	.LASF179
 2429 0ffd 07       		.byte	0x7
 2430 0ffe 4A       		.byte	0x4a
 2431 0fff 81000000 		.4byte	0x81
 2432 1003 15       		.uleb128 0x15
 2433 1004 BF0F0000 		.4byte	0xfbf
 2434 1008 15       		.uleb128 0x15
 2435 1009 81000000 		.4byte	0x81
 2436 100d 15       		.uleb128 0x15
 2437 100e 8C000000 		.4byte	0x8c
 2438 1012 15       		.uleb128 0x15
 2439 1013 81000000 		.4byte	0x81
 2440 1017 15       		.uleb128 0x15
 2441 1018 D3090000 		.4byte	0x9d3
 2442 101c 15       		.uleb128 0x15
 2443 101d 8C000000 		.4byte	0x8c
 2444 1021 15       		.uleb128 0x15
 2445 1022 BB090000 		.4byte	0x9bb
 2446 1026 00       		.byte	0
 2447 1027 00       		.byte	0
 2448              		.section	.debug_abbrev,"",%progbits
 2449              	.Ldebug_abbrev0:
 2450 0000 01       		.uleb128 0x1
 2451 0001 11       		.uleb128 0x11
ARM GAS  /tmp/ccdAyFVV.s 			page 44


 2452 0002 01       		.byte	0x1
 2453 0003 25       		.uleb128 0x25
 2454 0004 0E       		.uleb128 0xe
 2455 0005 13       		.uleb128 0x13
 2456 0006 0B       		.uleb128 0xb
 2457 0007 03       		.uleb128 0x3
 2458 0008 0E       		.uleb128 0xe
 2459 0009 1B       		.uleb128 0x1b
 2460 000a 0E       		.uleb128 0xe
 2461 000b 55       		.uleb128 0x55
 2462 000c 17       		.uleb128 0x17
 2463 000d 11       		.uleb128 0x11
 2464 000e 01       		.uleb128 0x1
 2465 000f 10       		.uleb128 0x10
 2466 0010 17       		.uleb128 0x17
 2467 0011 00       		.byte	0
 2468 0012 00       		.byte	0
 2469 0013 02       		.uleb128 0x2
 2470 0014 24       		.uleb128 0x24
 2471 0015 00       		.byte	0
 2472 0016 0B       		.uleb128 0xb
 2473 0017 0B       		.uleb128 0xb
 2474 0018 3E       		.uleb128 0x3e
 2475 0019 0B       		.uleb128 0xb
 2476 001a 03       		.uleb128 0x3
 2477 001b 0E       		.uleb128 0xe
 2478 001c 00       		.byte	0
 2479 001d 00       		.byte	0
 2480 001e 03       		.uleb128 0x3
 2481 001f 16       		.uleb128 0x16
 2482 0020 00       		.byte	0
 2483 0021 03       		.uleb128 0x3
 2484 0022 0E       		.uleb128 0xe
 2485 0023 3A       		.uleb128 0x3a
 2486 0024 0B       		.uleb128 0xb
 2487 0025 3B       		.uleb128 0x3b
 2488 0026 0B       		.uleb128 0xb
 2489 0027 49       		.uleb128 0x49
 2490 0028 13       		.uleb128 0x13
 2491 0029 00       		.byte	0
 2492 002a 00       		.byte	0
 2493 002b 04       		.uleb128 0x4
 2494 002c 24       		.uleb128 0x24
 2495 002d 00       		.byte	0
 2496 002e 0B       		.uleb128 0xb
 2497 002f 0B       		.uleb128 0xb
 2498 0030 3E       		.uleb128 0x3e
 2499 0031 0B       		.uleb128 0xb
 2500 0032 03       		.uleb128 0x3
 2501 0033 08       		.uleb128 0x8
 2502 0034 00       		.byte	0
 2503 0035 00       		.byte	0
 2504 0036 05       		.uleb128 0x5
 2505 0037 35       		.uleb128 0x35
 2506 0038 00       		.byte	0
 2507 0039 49       		.uleb128 0x49
 2508 003a 13       		.uleb128 0x13
ARM GAS  /tmp/ccdAyFVV.s 			page 45


 2509 003b 00       		.byte	0
 2510 003c 00       		.byte	0
 2511 003d 06       		.uleb128 0x6
 2512 003e 01       		.uleb128 0x1
 2513 003f 01       		.byte	0x1
 2514 0040 49       		.uleb128 0x49
 2515 0041 13       		.uleb128 0x13
 2516 0042 01       		.uleb128 0x1
 2517 0043 13       		.uleb128 0x13
 2518 0044 00       		.byte	0
 2519 0045 00       		.byte	0
 2520 0046 07       		.uleb128 0x7
 2521 0047 21       		.uleb128 0x21
 2522 0048 00       		.byte	0
 2523 0049 49       		.uleb128 0x49
 2524 004a 13       		.uleb128 0x13
 2525 004b 2F       		.uleb128 0x2f
 2526 004c 0B       		.uleb128 0xb
 2527 004d 00       		.byte	0
 2528 004e 00       		.byte	0
 2529 004f 08       		.uleb128 0x8
 2530 0050 13       		.uleb128 0x13
 2531 0051 01       		.byte	0x1
 2532 0052 0B       		.uleb128 0xb
 2533 0053 05       		.uleb128 0x5
 2534 0054 3A       		.uleb128 0x3a
 2535 0055 0B       		.uleb128 0xb
 2536 0056 3B       		.uleb128 0x3b
 2537 0057 05       		.uleb128 0x5
 2538 0058 6E       		.uleb128 0x6e
 2539 0059 0E       		.uleb128 0xe
 2540 005a 01       		.uleb128 0x1
 2541 005b 13       		.uleb128 0x13
 2542 005c 00       		.byte	0
 2543 005d 00       		.byte	0
 2544 005e 09       		.uleb128 0x9
 2545 005f 0D       		.uleb128 0xd
 2546 0060 00       		.byte	0
 2547 0061 03       		.uleb128 0x3
 2548 0062 0E       		.uleb128 0xe
 2549 0063 3A       		.uleb128 0x3a
 2550 0064 0B       		.uleb128 0xb
 2551 0065 3B       		.uleb128 0x3b
 2552 0066 05       		.uleb128 0x5
 2553 0067 49       		.uleb128 0x49
 2554 0068 13       		.uleb128 0x13
 2555 0069 38       		.uleb128 0x38
 2556 006a 0B       		.uleb128 0xb
 2557 006b 00       		.byte	0
 2558 006c 00       		.byte	0
 2559 006d 0A       		.uleb128 0xa
 2560 006e 0D       		.uleb128 0xd
 2561 006f 00       		.byte	0
 2562 0070 03       		.uleb128 0x3
 2563 0071 0E       		.uleb128 0xe
 2564 0072 3A       		.uleb128 0x3a
 2565 0073 0B       		.uleb128 0xb
ARM GAS  /tmp/ccdAyFVV.s 			page 46


 2566 0074 3B       		.uleb128 0x3b
 2567 0075 05       		.uleb128 0x5
 2568 0076 49       		.uleb128 0x49
 2569 0077 13       		.uleb128 0x13
 2570 0078 38       		.uleb128 0x38
 2571 0079 05       		.uleb128 0x5
 2572 007a 00       		.byte	0
 2573 007b 00       		.byte	0
 2574 007c 0B       		.uleb128 0xb
 2575 007d 16       		.uleb128 0x16
 2576 007e 00       		.byte	0
 2577 007f 03       		.uleb128 0x3
 2578 0080 08       		.uleb128 0x8
 2579 0081 3A       		.uleb128 0x3a
 2580 0082 0B       		.uleb128 0xb
 2581 0083 3B       		.uleb128 0x3b
 2582 0084 05       		.uleb128 0x5
 2583 0085 49       		.uleb128 0x49
 2584 0086 13       		.uleb128 0x13
 2585 0087 00       		.byte	0
 2586 0088 00       		.byte	0
 2587 0089 0C       		.uleb128 0xc
 2588 008a 13       		.uleb128 0x13
 2589 008b 01       		.byte	0x1
 2590 008c 03       		.uleb128 0x3
 2591 008d 0E       		.uleb128 0xe
 2592 008e 0B       		.uleb128 0xb
 2593 008f 0B       		.uleb128 0xb
 2594 0090 3A       		.uleb128 0x3a
 2595 0091 0B       		.uleb128 0xb
 2596 0092 3B       		.uleb128 0x3b
 2597 0093 0B       		.uleb128 0xb
 2598 0094 01       		.uleb128 0x1
 2599 0095 13       		.uleb128 0x13
 2600 0096 00       		.byte	0
 2601 0097 00       		.byte	0
 2602 0098 0D       		.uleb128 0xd
 2603 0099 0D       		.uleb128 0xd
 2604 009a 00       		.byte	0
 2605 009b 03       		.uleb128 0x3
 2606 009c 0E       		.uleb128 0xe
 2607 009d 3A       		.uleb128 0x3a
 2608 009e 0B       		.uleb128 0xb
 2609 009f 3B       		.uleb128 0x3b
 2610 00a0 0B       		.uleb128 0xb
 2611 00a1 49       		.uleb128 0x49
 2612 00a2 13       		.uleb128 0x13
 2613 00a3 38       		.uleb128 0x38
 2614 00a4 0B       		.uleb128 0xb
 2615 00a5 00       		.byte	0
 2616 00a6 00       		.byte	0
 2617 00a7 0E       		.uleb128 0xe
 2618 00a8 0D       		.uleb128 0xd
 2619 00a9 00       		.byte	0
 2620 00aa 03       		.uleb128 0x3
 2621 00ab 08       		.uleb128 0x8
 2622 00ac 3A       		.uleb128 0x3a
ARM GAS  /tmp/ccdAyFVV.s 			page 47


 2623 00ad 0B       		.uleb128 0xb
 2624 00ae 3B       		.uleb128 0x3b
 2625 00af 0B       		.uleb128 0xb
 2626 00b0 49       		.uleb128 0x49
 2627 00b1 13       		.uleb128 0x13
 2628 00b2 38       		.uleb128 0x38
 2629 00b3 0B       		.uleb128 0xb
 2630 00b4 00       		.byte	0
 2631 00b5 00       		.byte	0
 2632 00b6 0F       		.uleb128 0xf
 2633 00b7 0F       		.uleb128 0xf
 2634 00b8 00       		.byte	0
 2635 00b9 0B       		.uleb128 0xb
 2636 00ba 0B       		.uleb128 0xb
 2637 00bb 49       		.uleb128 0x49
 2638 00bc 13       		.uleb128 0x13
 2639 00bd 00       		.byte	0
 2640 00be 00       		.byte	0
 2641 00bf 10       		.uleb128 0x10
 2642 00c0 16       		.uleb128 0x16
 2643 00c1 00       		.byte	0
 2644 00c2 03       		.uleb128 0x3
 2645 00c3 08       		.uleb128 0x8
 2646 00c4 3A       		.uleb128 0x3a
 2647 00c5 0B       		.uleb128 0xb
 2648 00c6 3B       		.uleb128 0x3b
 2649 00c7 0B       		.uleb128 0xb
 2650 00c8 49       		.uleb128 0x49
 2651 00c9 13       		.uleb128 0x13
 2652 00ca 00       		.byte	0
 2653 00cb 00       		.byte	0
 2654 00cc 11       		.uleb128 0x11
 2655 00cd 0F       		.uleb128 0xf
 2656 00ce 00       		.byte	0
 2657 00cf 0B       		.uleb128 0xb
 2658 00d0 0B       		.uleb128 0xb
 2659 00d1 00       		.byte	0
 2660 00d2 00       		.byte	0
 2661 00d3 12       		.uleb128 0x12
 2662 00d4 02       		.uleb128 0x2
 2663 00d5 01       		.byte	0x1
 2664 00d6 03       		.uleb128 0x3
 2665 00d7 08       		.uleb128 0x8
 2666 00d8 0B       		.uleb128 0xb
 2667 00d9 0B       		.uleb128 0xb
 2668 00da 3A       		.uleb128 0x3a
 2669 00db 0B       		.uleb128 0xb
 2670 00dc 3B       		.uleb128 0x3b
 2671 00dd 0B       		.uleb128 0xb
 2672 00de 01       		.uleb128 0x1
 2673 00df 13       		.uleb128 0x13
 2674 00e0 00       		.byte	0
 2675 00e1 00       		.byte	0
 2676 00e2 13       		.uleb128 0x13
 2677 00e3 2E       		.uleb128 0x2e
 2678 00e4 01       		.byte	0x1
 2679 00e5 3F       		.uleb128 0x3f
ARM GAS  /tmp/ccdAyFVV.s 			page 48


 2680 00e6 19       		.uleb128 0x19
 2681 00e7 03       		.uleb128 0x3
 2682 00e8 0E       		.uleb128 0xe
 2683 00e9 3A       		.uleb128 0x3a
 2684 00ea 0B       		.uleb128 0xb
 2685 00eb 3B       		.uleb128 0x3b
 2686 00ec 0B       		.uleb128 0xb
 2687 00ed 6E       		.uleb128 0x6e
 2688 00ee 0E       		.uleb128 0xe
 2689 00ef 32       		.uleb128 0x32
 2690 00f0 0B       		.uleb128 0xb
 2691 00f1 3C       		.uleb128 0x3c
 2692 00f2 19       		.uleb128 0x19
 2693 00f3 64       		.uleb128 0x64
 2694 00f4 13       		.uleb128 0x13
 2695 00f5 01       		.uleb128 0x1
 2696 00f6 13       		.uleb128 0x13
 2697 00f7 00       		.byte	0
 2698 00f8 00       		.byte	0
 2699 00f9 14       		.uleb128 0x14
 2700 00fa 05       		.uleb128 0x5
 2701 00fb 00       		.byte	0
 2702 00fc 49       		.uleb128 0x49
 2703 00fd 13       		.uleb128 0x13
 2704 00fe 34       		.uleb128 0x34
 2705 00ff 19       		.uleb128 0x19
 2706 0100 00       		.byte	0
 2707 0101 00       		.byte	0
 2708 0102 15       		.uleb128 0x15
 2709 0103 05       		.uleb128 0x5
 2710 0104 00       		.byte	0
 2711 0105 49       		.uleb128 0x49
 2712 0106 13       		.uleb128 0x13
 2713 0107 00       		.byte	0
 2714 0108 00       		.byte	0
 2715 0109 16       		.uleb128 0x16
 2716 010a 2E       		.uleb128 0x2e
 2717 010b 01       		.byte	0x1
 2718 010c 3F       		.uleb128 0x3f
 2719 010d 19       		.uleb128 0x19
 2720 010e 03       		.uleb128 0x3
 2721 010f 0E       		.uleb128 0xe
 2722 0110 3A       		.uleb128 0x3a
 2723 0111 0B       		.uleb128 0xb
 2724 0112 3B       		.uleb128 0x3b
 2725 0113 0B       		.uleb128 0xb
 2726 0114 6E       		.uleb128 0x6e
 2727 0115 0E       		.uleb128 0xe
 2728 0116 49       		.uleb128 0x49
 2729 0117 13       		.uleb128 0x13
 2730 0118 32       		.uleb128 0x32
 2731 0119 0B       		.uleb128 0xb
 2732 011a 3C       		.uleb128 0x3c
 2733 011b 19       		.uleb128 0x19
 2734 011c 64       		.uleb128 0x64
 2735 011d 13       		.uleb128 0x13
 2736 011e 01       		.uleb128 0x1
ARM GAS  /tmp/ccdAyFVV.s 			page 49


 2737 011f 13       		.uleb128 0x13
 2738 0120 00       		.byte	0
 2739 0121 00       		.byte	0
 2740 0122 17       		.uleb128 0x17
 2741 0123 2E       		.uleb128 0x2e
 2742 0124 01       		.byte	0x1
 2743 0125 3F       		.uleb128 0x3f
 2744 0126 19       		.uleb128 0x19
 2745 0127 03       		.uleb128 0x3
 2746 0128 0E       		.uleb128 0xe
 2747 0129 3A       		.uleb128 0x3a
 2748 012a 0B       		.uleb128 0xb
 2749 012b 3B       		.uleb128 0x3b
 2750 012c 0B       		.uleb128 0xb
 2751 012d 6E       		.uleb128 0x6e
 2752 012e 0E       		.uleb128 0xe
 2753 012f 49       		.uleb128 0x49
 2754 0130 13       		.uleb128 0x13
 2755 0131 32       		.uleb128 0x32
 2756 0132 0B       		.uleb128 0xb
 2757 0133 3C       		.uleb128 0x3c
 2758 0134 19       		.uleb128 0x19
 2759 0135 64       		.uleb128 0x64
 2760 0136 13       		.uleb128 0x13
 2761 0137 00       		.byte	0
 2762 0138 00       		.byte	0
 2763 0139 18       		.uleb128 0x18
 2764 013a 2E       		.uleb128 0x2e
 2765 013b 01       		.byte	0x1
 2766 013c 47       		.uleb128 0x47
 2767 013d 13       		.uleb128 0x13
 2768 013e 3A       		.uleb128 0x3a
 2769 013f 0B       		.uleb128 0xb
 2770 0140 3B       		.uleb128 0x3b
 2771 0141 0B       		.uleb128 0xb
 2772 0142 11       		.uleb128 0x11
 2773 0143 01       		.uleb128 0x1
 2774 0144 12       		.uleb128 0x12
 2775 0145 06       		.uleb128 0x6
 2776 0146 40       		.uleb128 0x40
 2777 0147 18       		.uleb128 0x18
 2778 0148 64       		.uleb128 0x64
 2779 0149 13       		.uleb128 0x13
 2780 014a 9742     		.uleb128 0x2117
 2781 014c 19       		.uleb128 0x19
 2782 014d 01       		.uleb128 0x1
 2783 014e 13       		.uleb128 0x13
 2784 014f 00       		.byte	0
 2785 0150 00       		.byte	0
 2786 0151 19       		.uleb128 0x19
 2787 0152 05       		.uleb128 0x5
 2788 0153 00       		.byte	0
 2789 0154 03       		.uleb128 0x3
 2790 0155 0E       		.uleb128 0xe
 2791 0156 49       		.uleb128 0x49
 2792 0157 13       		.uleb128 0x13
 2793 0158 34       		.uleb128 0x34
ARM GAS  /tmp/ccdAyFVV.s 			page 50


 2794 0159 19       		.uleb128 0x19
 2795 015a 02       		.uleb128 0x2
 2796 015b 17       		.uleb128 0x17
 2797 015c 00       		.byte	0
 2798 015d 00       		.byte	0
 2799 015e 1A       		.uleb128 0x1a
 2800 015f 0B       		.uleb128 0xb
 2801 0160 01       		.byte	0x1
 2802 0161 11       		.uleb128 0x11
 2803 0162 01       		.uleb128 0x1
 2804 0163 12       		.uleb128 0x12
 2805 0164 06       		.uleb128 0x6
 2806 0165 01       		.uleb128 0x1
 2807 0166 13       		.uleb128 0x13
 2808 0167 00       		.byte	0
 2809 0168 00       		.byte	0
 2810 0169 1B       		.uleb128 0x1b
 2811 016a 34       		.uleb128 0x34
 2812 016b 00       		.byte	0
 2813 016c 03       		.uleb128 0x3
 2814 016d 08       		.uleb128 0x8
 2815 016e 3A       		.uleb128 0x3a
 2816 016f 0B       		.uleb128 0xb
 2817 0170 3B       		.uleb128 0x3b
 2818 0171 0B       		.uleb128 0xb
 2819 0172 49       		.uleb128 0x49
 2820 0173 13       		.uleb128 0x13
 2821 0174 02       		.uleb128 0x2
 2822 0175 18       		.uleb128 0x18
 2823 0176 00       		.byte	0
 2824 0177 00       		.byte	0
 2825 0178 1C       		.uleb128 0x1c
 2826 0179 898201   		.uleb128 0x4109
 2827 017c 01       		.byte	0x1
 2828 017d 11       		.uleb128 0x11
 2829 017e 01       		.uleb128 0x1
 2830 017f 31       		.uleb128 0x31
 2831 0180 13       		.uleb128 0x13
 2832 0181 01       		.uleb128 0x1
 2833 0182 13       		.uleb128 0x13
 2834 0183 00       		.byte	0
 2835 0184 00       		.byte	0
 2836 0185 1D       		.uleb128 0x1d
 2837 0186 8A8201   		.uleb128 0x410a
 2838 0189 00       		.byte	0
 2839 018a 02       		.uleb128 0x2
 2840 018b 18       		.uleb128 0x18
 2841 018c 9142     		.uleb128 0x2111
 2842 018e 18       		.uleb128 0x18
 2843 018f 00       		.byte	0
 2844 0190 00       		.byte	0
 2845 0191 1E       		.uleb128 0x1e
 2846 0192 898201   		.uleb128 0x4109
 2847 0195 01       		.byte	0x1
 2848 0196 11       		.uleb128 0x11
 2849 0197 01       		.uleb128 0x1
 2850 0198 31       		.uleb128 0x31
ARM GAS  /tmp/ccdAyFVV.s 			page 51


 2851 0199 13       		.uleb128 0x13
 2852 019a 00       		.byte	0
 2853 019b 00       		.byte	0
 2854 019c 1F       		.uleb128 0x1f
 2855 019d 26       		.uleb128 0x26
 2856 019e 00       		.byte	0
 2857 019f 49       		.uleb128 0x49
 2858 01a0 13       		.uleb128 0x13
 2859 01a1 00       		.byte	0
 2860 01a2 00       		.byte	0
 2861 01a3 20       		.uleb128 0x20
 2862 01a4 05       		.uleb128 0x5
 2863 01a5 00       		.byte	0
 2864 01a6 03       		.uleb128 0x3
 2865 01a7 0E       		.uleb128 0xe
 2866 01a8 3A       		.uleb128 0x3a
 2867 01a9 0B       		.uleb128 0xb
 2868 01aa 3B       		.uleb128 0x3b
 2869 01ab 0B       		.uleb128 0xb
 2870 01ac 49       		.uleb128 0x49
 2871 01ad 13       		.uleb128 0x13
 2872 01ae 02       		.uleb128 0x2
 2873 01af 17       		.uleb128 0x17
 2874 01b0 00       		.byte	0
 2875 01b1 00       		.byte	0
 2876 01b2 21       		.uleb128 0x21
 2877 01b3 0B       		.uleb128 0xb
 2878 01b4 01       		.byte	0x1
 2879 01b5 55       		.uleb128 0x55
 2880 01b6 17       		.uleb128 0x17
 2881 01b7 01       		.uleb128 0x1
 2882 01b8 13       		.uleb128 0x13
 2883 01b9 00       		.byte	0
 2884 01ba 00       		.byte	0
 2885 01bb 22       		.uleb128 0x22
 2886 01bc 0B       		.uleb128 0xb
 2887 01bd 01       		.byte	0x1
 2888 01be 55       		.uleb128 0x55
 2889 01bf 17       		.uleb128 0x17
 2890 01c0 00       		.byte	0
 2891 01c1 00       		.byte	0
 2892 01c2 23       		.uleb128 0x23
 2893 01c3 34       		.uleb128 0x34
 2894 01c4 00       		.byte	0
 2895 01c5 03       		.uleb128 0x3
 2896 01c6 0E       		.uleb128 0xe
 2897 01c7 3A       		.uleb128 0x3a
 2898 01c8 0B       		.uleb128 0xb
 2899 01c9 3B       		.uleb128 0x3b
 2900 01ca 0B       		.uleb128 0xb
 2901 01cb 49       		.uleb128 0x49
 2902 01cc 13       		.uleb128 0x13
 2903 01cd 02       		.uleb128 0x2
 2904 01ce 18       		.uleb128 0x18
 2905 01cf 00       		.byte	0
 2906 01d0 00       		.byte	0
 2907 01d1 24       		.uleb128 0x24
ARM GAS  /tmp/ccdAyFVV.s 			page 52


 2908 01d2 05       		.uleb128 0x5
 2909 01d3 00       		.byte	0
 2910 01d4 03       		.uleb128 0x3
 2911 01d5 0E       		.uleb128 0xe
 2912 01d6 3A       		.uleb128 0x3a
 2913 01d7 0B       		.uleb128 0xb
 2914 01d8 3B       		.uleb128 0x3b
 2915 01d9 0B       		.uleb128 0xb
 2916 01da 49       		.uleb128 0x49
 2917 01db 13       		.uleb128 0x13
 2918 01dc 02       		.uleb128 0x2
 2919 01dd 18       		.uleb128 0x18
 2920 01de 00       		.byte	0
 2921 01df 00       		.byte	0
 2922 01e0 25       		.uleb128 0x25
 2923 01e1 0B       		.uleb128 0xb
 2924 01e2 01       		.byte	0x1
 2925 01e3 11       		.uleb128 0x11
 2926 01e4 01       		.uleb128 0x1
 2927 01e5 12       		.uleb128 0x12
 2928 01e6 06       		.uleb128 0x6
 2929 01e7 00       		.byte	0
 2930 01e8 00       		.byte	0
 2931 01e9 26       		.uleb128 0x26
 2932 01ea 34       		.uleb128 0x34
 2933 01eb 00       		.byte	0
 2934 01ec 03       		.uleb128 0x3
 2935 01ed 08       		.uleb128 0x8
 2936 01ee 3A       		.uleb128 0x3a
 2937 01ef 0B       		.uleb128 0xb
 2938 01f0 3B       		.uleb128 0x3b
 2939 01f1 0B       		.uleb128 0xb
 2940 01f2 49       		.uleb128 0x49
 2941 01f3 13       		.uleb128 0x13
 2942 01f4 02       		.uleb128 0x2
 2943 01f5 17       		.uleb128 0x17
 2944 01f6 00       		.byte	0
 2945 01f7 00       		.byte	0
 2946 01f8 27       		.uleb128 0x27
 2947 01f9 2E       		.uleb128 0x2e
 2948 01fa 01       		.byte	0x1
 2949 01fb 3F       		.uleb128 0x3f
 2950 01fc 19       		.uleb128 0x19
 2951 01fd 03       		.uleb128 0x3
 2952 01fe 0E       		.uleb128 0xe
 2953 01ff 3A       		.uleb128 0x3a
 2954 0200 0B       		.uleb128 0xb
 2955 0201 3B       		.uleb128 0x3b
 2956 0202 0B       		.uleb128 0xb
 2957 0203 49       		.uleb128 0x49
 2958 0204 13       		.uleb128 0x13
 2959 0205 3C       		.uleb128 0x3c
 2960 0206 19       		.uleb128 0x19
 2961 0207 01       		.uleb128 0x1
 2962 0208 13       		.uleb128 0x13
 2963 0209 00       		.byte	0
 2964 020a 00       		.byte	0
ARM GAS  /tmp/ccdAyFVV.s 			page 53


 2965 020b 28       		.uleb128 0x28
 2966 020c 2E       		.uleb128 0x2e
 2967 020d 01       		.byte	0x1
 2968 020e 3F       		.uleb128 0x3f
 2969 020f 19       		.uleb128 0x19
 2970 0210 03       		.uleb128 0x3
 2971 0211 0E       		.uleb128 0xe
 2972 0212 3A       		.uleb128 0x3a
 2973 0213 0B       		.uleb128 0xb
 2974 0214 3B       		.uleb128 0x3b
 2975 0215 0B       		.uleb128 0xb
 2976 0216 3C       		.uleb128 0x3c
 2977 0217 19       		.uleb128 0x19
 2978 0218 01       		.uleb128 0x1
 2979 0219 13       		.uleb128 0x13
 2980 021a 00       		.byte	0
 2981 021b 00       		.byte	0
 2982 021c 29       		.uleb128 0x29
 2983 021d 2E       		.uleb128 0x2e
 2984 021e 01       		.byte	0x1
 2985 021f 3F       		.uleb128 0x3f
 2986 0220 19       		.uleb128 0x19
 2987 0221 03       		.uleb128 0x3
 2988 0222 0E       		.uleb128 0xe
 2989 0223 3A       		.uleb128 0x3a
 2990 0224 0B       		.uleb128 0xb
 2991 0225 3B       		.uleb128 0x3b
 2992 0226 0B       		.uleb128 0xb
 2993 0227 49       		.uleb128 0x49
 2994 0228 13       		.uleb128 0x13
 2995 0229 3C       		.uleb128 0x3c
 2996 022a 19       		.uleb128 0x19
 2997 022b 00       		.byte	0
 2998 022c 00       		.byte	0
 2999 022d 00       		.byte	0
 3000              		.section	.debug_loc,"",%progbits
 3001              	.Ldebug_loc0:
 3002              	.LLST0:
 3003 0000 00000000 		.4byte	.LVL0
 3004 0004 0E000000 		.4byte	.LVL1
 3005 0008 0100     		.2byte	0x1
 3006 000a 50       		.byte	0x50
 3007 000b 0E000000 		.4byte	.LVL1
 3008 000f 42000000 		.4byte	.LVL5
 3009 0013 0100     		.2byte	0x1
 3010 0015 55       		.byte	0x55
 3011 0016 42000000 		.4byte	.LVL5
 3012 001a 60000000 		.4byte	.LFE7
 3013 001e 0400     		.2byte	0x4
 3014 0020 F3       		.byte	0xf3
 3015 0021 01       		.uleb128 0x1
 3016 0022 50       		.byte	0x50
 3017 0023 9F       		.byte	0x9f
 3018 0024 00000000 		.4byte	0
 3019 0028 00000000 		.4byte	0
 3020              	.LLST1:
 3021 002c 00000000 		.4byte	.LVL6
ARM GAS  /tmp/ccdAyFVV.s 			page 54


 3022 0030 1D000000 		.4byte	.LVL8-1
 3023 0034 0100     		.2byte	0x1
 3024 0036 50       		.byte	0x50
 3025 0037 1D000000 		.4byte	.LVL8-1
 3026 003b 28000000 		.4byte	.LFE8
 3027 003f 0400     		.2byte	0x4
 3028 0041 F3       		.byte	0xf3
 3029 0042 01       		.uleb128 0x1
 3030 0043 50       		.byte	0x50
 3031 0044 9F       		.byte	0x9f
 3032 0045 00000000 		.4byte	0
 3033 0049 00000000 		.4byte	0
 3034              	.LLST2:
 3035 004d 00000000 		.4byte	.LVL6
 3036 0051 1D000000 		.4byte	.LVL8-1
 3037 0055 0100     		.2byte	0x1
 3038 0057 51       		.byte	0x51
 3039 0058 1D000000 		.4byte	.LVL8-1
 3040 005c 28000000 		.4byte	.LFE8
 3041 0060 0400     		.2byte	0x4
 3042 0062 F3       		.byte	0xf3
 3043 0063 01       		.uleb128 0x1
 3044 0064 51       		.byte	0x51
 3045 0065 9F       		.byte	0x9f
 3046 0066 00000000 		.4byte	0
 3047 006a 00000000 		.4byte	0
 3048              	.LLST3:
 3049 006e 00000000 		.4byte	.LVL6
 3050 0072 1D000000 		.4byte	.LVL8-1
 3051 0076 0100     		.2byte	0x1
 3052 0078 52       		.byte	0x52
 3053 0079 1D000000 		.4byte	.LVL8-1
 3054 007d 28000000 		.4byte	.LFE8
 3055 0081 0400     		.2byte	0x4
 3056 0083 F3       		.byte	0xf3
 3057 0084 01       		.uleb128 0x1
 3058 0085 52       		.byte	0x52
 3059 0086 9F       		.byte	0x9f
 3060 0087 00000000 		.4byte	0
 3061 008b 00000000 		.4byte	0
 3062              	.LLST4:
 3063 008f 00000000 		.4byte	.LVL6
 3064 0093 0C000000 		.4byte	.LVL7
 3065 0097 0100     		.2byte	0x1
 3066 0099 53       		.byte	0x53
 3067 009a 0C000000 		.4byte	.LVL7
 3068 009e 28000000 		.4byte	.LFE8
 3069 00a2 0200     		.2byte	0x2
 3070 00a4 74       		.byte	0x74
 3071 00a5 00       		.sleb128 0
 3072 00a6 00000000 		.4byte	0
 3073 00aa 00000000 		.4byte	0
 3074              	.LLST5:
 3075 00ae 00000000 		.4byte	.LVL9
 3076 00b2 21000000 		.4byte	.LVL11-1
 3077 00b6 0100     		.2byte	0x1
 3078 00b8 50       		.byte	0x50
ARM GAS  /tmp/ccdAyFVV.s 			page 55


 3079 00b9 21000000 		.4byte	.LVL11-1
 3080 00bd 2C000000 		.4byte	.LFE9
 3081 00c1 0400     		.2byte	0x4
 3082 00c3 F3       		.byte	0xf3
 3083 00c4 01       		.uleb128 0x1
 3084 00c5 50       		.byte	0x50
 3085 00c6 9F       		.byte	0x9f
 3086 00c7 00000000 		.4byte	0
 3087 00cb 00000000 		.4byte	0
 3088              	.LLST6:
 3089 00cf 00000000 		.4byte	.LVL9
 3090 00d3 21000000 		.4byte	.LVL11-1
 3091 00d7 0100     		.2byte	0x1
 3092 00d9 51       		.byte	0x51
 3093 00da 21000000 		.4byte	.LVL11-1
 3094 00de 2C000000 		.4byte	.LFE9
 3095 00e2 0400     		.2byte	0x4
 3096 00e4 F3       		.byte	0xf3
 3097 00e5 01       		.uleb128 0x1
 3098 00e6 51       		.byte	0x51
 3099 00e7 9F       		.byte	0x9f
 3100 00e8 00000000 		.4byte	0
 3101 00ec 00000000 		.4byte	0
 3102              	.LLST7:
 3103 00f0 00000000 		.4byte	.LVL9
 3104 00f4 1E000000 		.4byte	.LVL10
 3105 00f8 0100     		.2byte	0x1
 3106 00fa 52       		.byte	0x52
 3107 00fb 1E000000 		.4byte	.LVL10
 3108 00ff 2C000000 		.4byte	.LFE9
 3109 0103 0200     		.2byte	0x2
 3110 0105 75       		.byte	0x75
 3111 0106 00       		.sleb128 0
 3112 0107 00000000 		.4byte	0
 3113 010b 00000000 		.4byte	0
 3114              	.LLST8:
 3115 010f 00000000 		.4byte	.LVL12
 3116 0113 1B000000 		.4byte	.LVL13-1
 3117 0117 0100     		.2byte	0x1
 3118 0119 50       		.byte	0x50
 3119 011a 1B000000 		.4byte	.LVL13-1
 3120 011e 2E000000 		.4byte	.LFE10
 3121 0122 0400     		.2byte	0x4
 3122 0124 F3       		.byte	0xf3
 3123 0125 01       		.uleb128 0x1
 3124 0126 50       		.byte	0x50
 3125 0127 9F       		.byte	0x9f
 3126 0128 00000000 		.4byte	0
 3127 012c 00000000 		.4byte	0
 3128              	.LLST9:
 3129 0130 00000000 		.4byte	.LVL12
 3130 0134 1B000000 		.4byte	.LVL13-1
 3131 0138 0100     		.2byte	0x1
 3132 013a 51       		.byte	0x51
 3133 013b 1B000000 		.4byte	.LVL13-1
 3134 013f 2E000000 		.4byte	.LFE10
 3135 0143 0400     		.2byte	0x4
ARM GAS  /tmp/ccdAyFVV.s 			page 56


 3136 0145 F3       		.byte	0xf3
 3137 0146 01       		.uleb128 0x1
 3138 0147 51       		.byte	0x51
 3139 0148 9F       		.byte	0x9f
 3140 0149 00000000 		.4byte	0
 3141 014d 00000000 		.4byte	0
 3142              	.LLST10:
 3143 0151 00000000 		.4byte	.LVL12
 3144 0155 1B000000 		.4byte	.LVL13-1
 3145 0159 0100     		.2byte	0x1
 3146 015b 52       		.byte	0x52
 3147 015c 1B000000 		.4byte	.LVL13-1
 3148 0160 2E000000 		.4byte	.LFE10
 3149 0164 0400     		.2byte	0x4
 3150 0166 F3       		.byte	0xf3
 3151 0167 01       		.uleb128 0x1
 3152 0168 52       		.byte	0x52
 3153 0169 9F       		.byte	0x9f
 3154 016a 00000000 		.4byte	0
 3155 016e 00000000 		.4byte	0
 3156              	.LLST11:
 3157 0172 00000000 		.4byte	.LVL15
 3158 0176 1D000000 		.4byte	.LVL16-1
 3159 017a 0100     		.2byte	0x1
 3160 017c 50       		.byte	0x50
 3161 017d 1D000000 		.4byte	.LVL16-1
 3162 0181 30000000 		.4byte	.LFE11
 3163 0185 0400     		.2byte	0x4
 3164 0187 F3       		.byte	0xf3
 3165 0188 01       		.uleb128 0x1
 3166 0189 50       		.byte	0x50
 3167 018a 9F       		.byte	0x9f
 3168 018b 00000000 		.4byte	0
 3169 018f 00000000 		.4byte	0
 3170              	.LLST12:
 3171 0193 00000000 		.4byte	.LVL15
 3172 0197 1D000000 		.4byte	.LVL16-1
 3173 019b 0100     		.2byte	0x1
 3174 019d 51       		.byte	0x51
 3175 019e 1D000000 		.4byte	.LVL16-1
 3176 01a2 30000000 		.4byte	.LFE11
 3177 01a6 0400     		.2byte	0x4
 3178 01a8 F3       		.byte	0xf3
 3179 01a9 01       		.uleb128 0x1
 3180 01aa 51       		.byte	0x51
 3181 01ab 9F       		.byte	0x9f
 3182 01ac 00000000 		.4byte	0
 3183 01b0 00000000 		.4byte	0
 3184              	.LLST13:
 3185 01b4 00000000 		.4byte	.LVL18
 3186 01b8 1D000000 		.4byte	.LVL21-1
 3187 01bc 0100     		.2byte	0x1
 3188 01be 50       		.byte	0x50
 3189 01bf 1D000000 		.4byte	.LVL21-1
 3190 01c3 30000000 		.4byte	.LFE12
 3191 01c7 0400     		.2byte	0x4
 3192 01c9 F3       		.byte	0xf3
ARM GAS  /tmp/ccdAyFVV.s 			page 57


 3193 01ca 01       		.uleb128 0x1
 3194 01cb 50       		.byte	0x50
 3195 01cc 9F       		.byte	0x9f
 3196 01cd 00000000 		.4byte	0
 3197 01d1 00000000 		.4byte	0
 3198              	.LLST14:
 3199 01d5 00000000 		.4byte	.LVL18
 3200 01d9 1D000000 		.4byte	.LVL21-1
 3201 01dd 0100     		.2byte	0x1
 3202 01df 51       		.byte	0x51
 3203 01e0 1D000000 		.4byte	.LVL21-1
 3204 01e4 30000000 		.4byte	.LFE12
 3205 01e8 0400     		.2byte	0x4
 3206 01ea F3       		.byte	0xf3
 3207 01eb 01       		.uleb128 0x1
 3208 01ec 51       		.byte	0x51
 3209 01ed 9F       		.byte	0x9f
 3210 01ee 00000000 		.4byte	0
 3211 01f2 00000000 		.4byte	0
 3212              	.LLST15:
 3213 01f6 00000000 		.4byte	.LVL18
 3214 01fa 1D000000 		.4byte	.LVL21-1
 3215 01fe 0100     		.2byte	0x1
 3216 0200 52       		.byte	0x52
 3217 0201 1D000000 		.4byte	.LVL21-1
 3218 0205 30000000 		.4byte	.LFE12
 3219 0209 0400     		.2byte	0x4
 3220 020b F3       		.byte	0xf3
 3221 020c 01       		.uleb128 0x1
 3222 020d 52       		.byte	0x52
 3223 020e 9F       		.byte	0x9f
 3224 020f 00000000 		.4byte	0
 3225 0213 00000000 		.4byte	0
 3226              	.LLST16:
 3227 0217 00000000 		.4byte	.LVL18
 3228 021b 0C000000 		.4byte	.LVL19
 3229 021f 0100     		.2byte	0x1
 3230 0221 53       		.byte	0x53
 3231 0222 0C000000 		.4byte	.LVL19
 3232 0226 30000000 		.4byte	.LFE12
 3233 022a 0100     		.2byte	0x1
 3234 022c 56       		.byte	0x56
 3235 022d 00000000 		.4byte	0
 3236 0231 00000000 		.4byte	0
 3237              	.LLST17:
 3238 0235 10000000 		.4byte	.LVL20
 3239 0239 24000000 		.4byte	.LVL22
 3240 023d 0200     		.2byte	0x2
 3241 023f 30       		.byte	0x30
 3242 0240 9F       		.byte	0x9f
 3243 0241 24000000 		.4byte	.LVL22
 3244 0245 30000000 		.4byte	.LFE12
 3245 0249 0100     		.2byte	0x1
 3246 024b 54       		.byte	0x54
 3247 024c 00000000 		.4byte	0
 3248 0250 00000000 		.4byte	0
 3249              		.section	.debug_aranges,"",%progbits
ARM GAS  /tmp/ccdAyFVV.s 			page 58


 3250 0000 44000000 		.4byte	0x44
 3251 0004 0200     		.2byte	0x2
 3252 0006 00000000 		.4byte	.Ldebug_info0
 3253 000a 04       		.byte	0x4
 3254 000b 00       		.byte	0
 3255 000c 0000     		.2byte	0
 3256 000e 0000     		.2byte	0
 3257 0010 00000000 		.4byte	.LFB7
 3258 0014 60000000 		.4byte	.LFE7-.LFB7
 3259 0018 00000000 		.4byte	.LFB8
 3260 001c 28000000 		.4byte	.LFE8-.LFB8
 3261 0020 00000000 		.4byte	.LFB9
 3262 0024 2C000000 		.4byte	.LFE9-.LFB9
 3263 0028 00000000 		.4byte	.LFB10
 3264 002c 2E000000 		.4byte	.LFE10-.LFB10
 3265 0030 00000000 		.4byte	.LFB11
 3266 0034 30000000 		.4byte	.LFE11-.LFB11
 3267 0038 00000000 		.4byte	.LFB12
 3268 003c 30000000 		.4byte	.LFE12-.LFB12
 3269 0040 00000000 		.4byte	0
 3270 0044 00000000 		.4byte	0
 3271              		.section	.debug_ranges,"",%progbits
 3272              	.Ldebug_ranges0:
 3273 0000 06000000 		.4byte	.LBB9
 3274 0004 08000000 		.4byte	.LBE9
 3275 0008 0C000000 		.4byte	.LBB10
 3276 000c 10000000 		.4byte	.LBE10
 3277 0010 00000000 		.4byte	0
 3278 0014 00000000 		.4byte	0
 3279 0018 02000000 		.4byte	.LBB13
 3280 001c 04000000 		.4byte	.LBE13
 3281 0020 06000000 		.4byte	.LBB17
 3282 0024 28000000 		.4byte	.LBE17
 3283 0028 00000000 		.4byte	0
 3284 002c 00000000 		.4byte	0
 3285 0030 02000000 		.4byte	.LBB14
 3286 0034 04000000 		.4byte	.LBE14
 3287 0038 06000000 		.4byte	.LBB15
 3288 003c 0A000000 		.4byte	.LBE15
 3289 0040 00000000 		.4byte	0
 3290 0044 00000000 		.4byte	0
 3291 0048 02000000 		.4byte	.LBB18
 3292 004c 04000000 		.4byte	.LBE18
 3293 0050 06000000 		.4byte	.LBB22
 3294 0054 2A000000 		.4byte	.LBE22
 3295 0058 00000000 		.4byte	0
 3296 005c 00000000 		.4byte	0
 3297 0060 02000000 		.4byte	.LBB19
 3298 0064 04000000 		.4byte	.LBE19
 3299 0068 06000000 		.4byte	.LBB20
 3300 006c 0A000000 		.4byte	.LBE20
 3301 0070 00000000 		.4byte	0
 3302 0074 00000000 		.4byte	0
 3303 0078 00000000 		.4byte	.LFB7
 3304 007c 60000000 		.4byte	.LFE7
 3305 0080 00000000 		.4byte	.LFB8
 3306 0084 28000000 		.4byte	.LFE8
ARM GAS  /tmp/ccdAyFVV.s 			page 59


 3307 0088 00000000 		.4byte	.LFB9
 3308 008c 2C000000 		.4byte	.LFE9
 3309 0090 00000000 		.4byte	.LFB10
 3310 0094 2E000000 		.4byte	.LFE10
 3311 0098 00000000 		.4byte	.LFB11
 3312 009c 30000000 		.4byte	.LFE11
 3313 00a0 00000000 		.4byte	.LFB12
 3314 00a4 30000000 		.4byte	.LFE12
 3315 00a8 00000000 		.4byte	0
 3316 00ac 00000000 		.4byte	0
 3317              		.section	.debug_line,"",%progbits
 3318              	.Ldebug_line0:
 3319 0000 CB010000 		.section	.debug_str,"MS",%progbits,1
 3319      02002F01 
 3319      00000201 
 3319      FB0E0D00 
 3319      01010101 
 3320              	.LASF173:
 3321 0000 636F756E 		.ascii	"count\000"
 3321      7400
 3322              	.LASF82:
 3323 0006 50494F5F 		.ascii	"PIO_PCRHR\000"
 3323      50435248 
 3323      5200
 3324              	.LASF65:
 3325 0010 50494F5F 		.ascii	"PIO_ELSR\000"
 3325      454C5352 
 3325      00
 3326              	.LASF180:
 3327 0019 474E5520 		.ascii	"GNU C++ 4.9.3 20150529 (release) [ARM/embedded-4_9-"
 3327      432B2B20 
 3327      342E392E 
 3327      33203230 
 3327      31353035 
 3328 004c 6272616E 		.ascii	"branch revision 227977] -mcpu=cortex-m3 -mno-thumb-"
 3328      63682072 
 3328      65766973 
 3328      696F6E20 
 3328      32323739 
 3329 007f 696E7465 		.ascii	"interwork -mthumb -ggdb -O2 -fomit-frame-pointer -f"
 3329      72776F72 
 3329      6B202D6D 
 3329      7468756D 
 3329      62202D67 
 3330 00b2 616C6967 		.ascii	"align-functions=16 -ffunction-sections -fdata-secti"
 3330      6E2D6675 
 3330      6E637469 
 3330      6F6E733D 
 3330      3136202D 
 3331 00e5 6F6E7320 		.ascii	"ons -fno-common -fno-rtti\000"
 3331      2D666E6F 
 3331      2D636F6D 
 3331      6D6F6E20 
 3331      2D666E6F 
 3332              	.LASF59:
 3333 00ff 50494F5F 		.ascii	"PIO_AIMER\000"
 3333      41494D45 
ARM GAS  /tmp/ccdAyFVV.s 			page 60


 3333      5200
 3334              	.LASF124:
 3335 0109 5457495F 		.ascii	"TWI_SMR\000"
 3335      534D5200 
 3336              	.LASF182:
 3337 0111 2F686F6D 		.ascii	"/home/carlos/Documents/Embebidos/stamp_repo/files/c"
 3337      652F6361 
 3337      726C6F73 
 3337      2F446F63 
 3337      756D656E 
 3338 0144 6F64652F 		.ascii	"ode/src/rtc_emb\000"
 3338      7372632F 
 3338      7274635F 
 3338      656D6200 
 3339              	.LASF85:
 3340 0154 50494F5F 		.ascii	"PIO_TPR\000"
 3340      54505200 
 3341              	.LASF101:
 3342 015c 434B4752 		.ascii	"CKGR_MOR\000"
 3342      5F4D4F52 
 3342      00
 3343              	.LASF165:
 3344 0165 5F5A4E33 		.ascii	"_ZN3I2C8ReadByteEh\000"
 3344      49324338 
 3344      52656164 
 3344      42797465 
 3344      456800
 3345              	.LASF5:
 3346 0178 5F5F7569 		.ascii	"__uint8_t\000"
 3346      6E74385F 
 3346      7400
 3347              	.LASF75:
 3348 0182 50494F5F 		.ascii	"PIO_SCHMITT\000"
 3348      5343484D 
 3348      49545400 
 3349              	.LASF144:
 3350 018e 74797065 		.ascii	"type\000"
 3350      00
 3351              	.LASF177:
 3352 0193 50494F5F 		.ascii	"PIO_Configure\000"
 3352      436F6E66 
 3352      69677572 
 3352      6500
 3353              	.LASF81:
 3354 01a1 50494F5F 		.ascii	"PIO_PCISR\000"
 3354      50434953 
 3354      5200
 3355              	.LASF137:
 3356 01ab 5457495F 		.ascii	"TWI_RNPR\000"
 3356      524E5052 
 3356      00
 3357              	.LASF9:
 3358 01b4 6C6F6E67 		.ascii	"long long unsigned int\000"
 3358      206C6F6E 
 3358      6720756E 
 3358      7369676E 
 3358      65642069 
ARM GAS  /tmp/ccdAyFVV.s 			page 61


 3359              	.LASF79:
 3360 01cb 50494F5F 		.ascii	"PIO_PCIDR\000"
 3360      50434944 
 3360      5200
 3361              	.LASF88:
 3362 01d5 50494F5F 		.ascii	"PIO_RNCR\000"
 3362      524E4352 
 3362      00
 3363              	.LASF123:
 3364 01de 5457495F 		.ascii	"TWI_MMR\000"
 3364      4D4D5200 
 3365              	.LASF50:
 3366 01e6 50494F5F 		.ascii	"PIO_SCDR\000"
 3366      53434452 
 3366      00
 3367              	.LASF43:
 3368 01ef 50494F5F 		.ascii	"PIO_PUSR\000"
 3368      50555352 
 3368      00
 3369              	.LASF8:
 3370 01f8 6C6F6E67 		.ascii	"long long int\000"
 3370      206C6F6E 
 3370      6720696E 
 3370      7400
 3371              	.LASF0:
 3372 0206 7369676E 		.ascii	"signed char\000"
 3372      65642063 
 3372      68617200 
 3373              	.LASF80:
 3374 0212 50494F5F 		.ascii	"PIO_PCIMR\000"
 3374      5043494D 
 3374      5200
 3375              	.LASF63:
 3376 021c 50494F5F 		.ascii	"PIO_ESR\000"
 3376      45535200 
 3377              	.LASF96:
 3378 0224 504D435F 		.ascii	"PMC_SCDR\000"
 3378      53434452 
 3378      00
 3379              	.LASF140:
 3380 022d 5457495F 		.ascii	"TWI_TNCR\000"
 3380      544E4352 
 3380      00
 3381              	.LASF19:
 3382 0236 50494F5F 		.ascii	"PIO_PSR\000"
 3382      50535200 
 3383              	.LASF20:
 3384 023e 52657365 		.ascii	"Reserved1\000"
 3384      72766564 
 3384      3100
 3385              	.LASF24:
 3386 0248 52657365 		.ascii	"Reserved2\000"
 3386      72766564 
 3386      3200
 3387              	.LASF168:
 3388 0252 74686973 		.ascii	"this\000"
 3388      00
ARM GAS  /tmp/ccdAyFVV.s 			page 62


 3389              	.LASF41:
 3390 0257 50494F5F 		.ascii	"PIO_PUDR\000"
 3390      50554452 
 3390      00
 3391              	.LASF100:
 3392 0260 504D435F 		.ascii	"PMC_PCSR0\000"
 3392      50435352 
 3392      3000
 3393              	.LASF46:
 3394 026a 52657365 		.ascii	"Reserved6\000"
 3394      72766564 
 3394      3600
 3395              	.LASF54:
 3396 0274 52657365 		.ascii	"Reserved7\000"
 3396      72766564 
 3396      3700
 3397              	.LASF58:
 3398 027e 52657365 		.ascii	"Reserved8\000"
 3398      72766564 
 3398      3800
 3399              	.LASF62:
 3400 0288 52657365 		.ascii	"Reserved9\000"
 3400      72766564 
 3400      3900
 3401              	.LASF52:
 3402 0292 50494F5F 		.ascii	"PIO_PPDER\000"
 3402      50504445 
 3402      5200
 3403              	.LASF18:
 3404 029c 50494F5F 		.ascii	"PIO_PDR\000"
 3404      50445200 
 3405              	.LASF4:
 3406 02a4 6C6F6E67 		.ascii	"long int\000"
 3406      20696E74 
 3406      00
 3407              	.LASF176:
 3408 02ad 54574944 		.ascii	"TWID_Initialize\000"
 3408      5F496E69 
 3408      7469616C 
 3408      697A6500 
 3409              	.LASF115:
 3410 02bd 504D435F 		.ascii	"PMC_WPMR\000"
 3410      57504D52 
 3410      00
 3411              	.LASF98:
 3412 02c6 504D435F 		.ascii	"PMC_PCER0\000"
 3412      50434552 
 3412      3000
 3413              	.LASF117:
 3414 02d0 504D435F 		.ascii	"PMC_PCER1\000"
 3414      50434552 
 3414      3100
 3415              	.LASF91:
 3416 02da 50494F5F 		.ascii	"PIO_PTCR\000"
 3416      50544352 
 3416      00
 3417              	.LASF78:
ARM GAS  /tmp/ccdAyFVV.s 			page 63


 3418 02e3 50494F5F 		.ascii	"PIO_PCIER\000"
 3418      50434945 
 3418      5200
 3419              	.LASF32:
 3420 02ed 50494F5F 		.ascii	"PIO_PDSR\000"
 3420      50445352 
 3420      00
 3421              	.LASF135:
 3422 02f6 5457495F 		.ascii	"TWI_TPR\000"
 3422      54505200 
 3423              	.LASF45:
 3424 02fe 50494F5F 		.ascii	"PIO_ABCDSR\000"
 3424      41424344 
 3424      535200
 3425              	.LASF17:
 3426 0309 50494F5F 		.ascii	"PIO_PER\000"
 3426      50455200 
 3427              	.LASF6:
 3428 0311 5F5F7569 		.ascii	"__uint32_t\000"
 3428      6E743332 
 3428      5F7400
 3429              	.LASF143:
 3430 031c 6D61736B 		.ascii	"mask\000"
 3430      00
 3431              	.LASF107:
 3432 0321 504D435F 		.ascii	"PMC_PCK\000"
 3432      50434B00 
 3433              	.LASF66:
 3434 0329 52657365 		.ascii	"Reserved10\000"
 3434      72766564 
 3434      313000
 3435              	.LASF70:
 3436 0334 52657365 		.ascii	"Reserved11\000"
 3436      72766564 
 3436      313100
 3437              	.LASF74:
 3438 033f 52657365 		.ascii	"Reserved12\000"
 3438      72766564 
 3438      313200
 3439              	.LASF76:
 3440 034a 52657365 		.ascii	"Reserved13\000"
 3440      72766564 
 3440      313300
 3441              	.LASF73:
 3442 0355 50494F5F 		.ascii	"PIO_WPSR\000"
 3442      57505352 
 3442      00
 3443              	.LASF161:
 3444 035e 5F5A4E33 		.ascii	"_ZN3I2C9WriteByteEhhh\000"
 3444      49324339 
 3444      57726974 
 3444      65427974 
 3444      65456868 
 3445              	.LASF110:
 3446 0374 504D435F 		.ascii	"PMC_SR\000"
 3446      535200
 3447              	.LASF10:
ARM GAS  /tmp/ccdAyFVV.s 			page 64


 3448 037b 756E7369 		.ascii	"unsigned int\000"
 3448      676E6564 
 3448      20696E74 
 3448      00
 3449              	.LASF102:
 3450 0388 434B4752 		.ascii	"CKGR_MCFR\000"
 3450      5F4D4346 
 3450      5200
 3451              	.LASF42:
 3452 0392 50494F5F 		.ascii	"PIO_PUER\000"
 3452      50554552 
 3452      00
 3453              	.LASF69:
 3454 039b 50494F5F 		.ascii	"PIO_FRLHSR\000"
 3454      46524C48 
 3454      535200
 3455              	.LASF86:
 3456 03a6 50494F5F 		.ascii	"PIO_TCR\000"
 3456      54435200 
 3457              	.LASF23:
 3458 03ae 50494F5F 		.ascii	"PIO_OSR\000"
 3458      4F535200 
 3459              	.LASF39:
 3460 03b6 50494F5F 		.ascii	"PIO_MDSR\000"
 3460      4D445352 
 3460      00
 3461              	.LASF7:
 3462 03bf 6C6F6E67 		.ascii	"long unsigned int\000"
 3462      20756E73 
 3462      69676E65 
 3462      6420696E 
 3462      7400
 3463              	.LASF92:
 3464 03d1 50494F5F 		.ascii	"PIO_PTSR\000"
 3464      50545352 
 3464      00
 3465              	.LASF31:
 3466 03da 50494F5F 		.ascii	"PIO_ODSR\000"
 3466      4F445352 
 3466      00
 3467              	.LASF22:
 3468 03e3 50494F5F 		.ascii	"PIO_ODR\000"
 3468      4F445200 
 3469              	.LASF28:
 3470 03eb 52657365 		.ascii	"Reserved3\000"
 3470      72766564 
 3470      3300
 3471              	.LASF138:
 3472 03f5 5457495F 		.ascii	"TWI_RNCR\000"
 3472      524E4352 
 3472      00
 3473              	.LASF44:
 3474 03fe 52657365 		.ascii	"Reserved5\000"
 3474      72766564 
 3474      3500
 3475              	.LASF171:
 3476 0408 64617461 		.ascii	"data\000"
ARM GAS  /tmp/ccdAyFVV.s 			page 65


 3476      00
 3477              	.LASF3:
 3478 040d 73686F72 		.ascii	"short unsigned int\000"
 3478      7420756E 
 3478      7369676E 
 3478      65642069 
 3478      6E7400
 3479              	.LASF105:
 3480 0420 504D435F 		.ascii	"PMC_MCKR\000"
 3480      4D434B52 
 3480      00
 3481              	.LASF99:
 3482 0429 504D435F 		.ascii	"PMC_PCDR0\000"
 3482      50434452 
 3482      3000
 3483              	.LASF118:
 3484 0433 504D435F 		.ascii	"PMC_PCDR1\000"
 3484      50434452 
 3484      3100
 3485              	.LASF83:
 3486 043d 50494F5F 		.ascii	"PIO_RPR\000"
 3486      52505200 
 3487              	.LASF152:
 3488 0445 5F547769 		.ascii	"_Twid\000"
 3488      6400
 3489              	.LASF166:
 3490 044b 52656164 		.ascii	"ReadBytes\000"
 3490      42797465 
 3490      7300
 3491              	.LASF71:
 3492 0455 50494F5F 		.ascii	"PIO_LOCKSR\000"
 3492      4C4F434B 
 3492      535200
 3493              	.LASF149:
 3494 0460 63616C6C 		.ascii	"callback\000"
 3494      6261636B 
 3494      00
 3495              	.LASF93:
 3496 0469 3350696F 		.ascii	"3Pio\000"
 3496      00
 3497              	.LASF36:
 3498 046e 50494F5F 		.ascii	"PIO_ISR\000"
 3498      49535200 
 3499              	.LASF151:
 3500 0476 4173796E 		.ascii	"Async\000"
 3500      6300
 3501              	.LASF2:
 3502 047c 73686F72 		.ascii	"short int\000"
 3502      7420696E 
 3502      7400
 3503              	.LASF34:
 3504 0486 50494F5F 		.ascii	"PIO_IDR\000"
 3504      49445200 
 3505              	.LASF106:
 3506 048e 504D435F 		.ascii	"PMC_USB\000"
 3506      55534200 
 3507              	.LASF61:
ARM GAS  /tmp/ccdAyFVV.s 			page 66


 3508 0496 50494F5F 		.ascii	"PIO_AIMMR\000"
 3508      41494D4D 
 3508      5200
 3509              	.LASF120:
 3510 04a0 504D435F 		.ascii	"PMC_OCR\000"
 3510      4F435200 
 3511              	.LASF153:
 3512 04a8 70547769 		.ascii	"pTwi\000"
 3512      00
 3513              	.LASF16:
 3514 04ad 73697A65 		.ascii	"sizetype\000"
 3514      74797065 
 3514      00
 3515              	.LASF141:
 3516 04b6 5457495F 		.ascii	"TWI_PTCR\000"
 3516      50544352 
 3516      00
 3517              	.LASF72:
 3518 04bf 50494F5F 		.ascii	"PIO_WPMR\000"
 3518      57504D52 
 3518      00
 3519              	.LASF169:
 3520 04c8 61646472 		.ascii	"address\000"
 3520      65737300 
 3521              	.LASF121:
 3522 04d0 33547769 		.ascii	"3Twi\000"
 3522      00
 3523              	.LASF136:
 3524 04d5 5457495F 		.ascii	"TWI_TCR\000"
 3524      54435200 
 3525              	.LASF179:
 3526 04dd 54574944 		.ascii	"TWID_Read\000"
 3526      5F526561 
 3526      6400
 3527              	.LASF15:
 3528 04e7 52775265 		.ascii	"RwReg\000"
 3528      6700
 3529              	.LASF131:
 3530 04ed 5457495F 		.ascii	"TWI_RHR\000"
 3530      52485200 
 3531              	.LASF172:
 3532 04f5 64657374 		.ascii	"dest\000"
 3532      00
 3533              	.LASF14:
 3534 04fa 576F5265 		.ascii	"WoReg\000"
 3534      6700
 3535              	.LASF51:
 3536 0500 50494F5F 		.ascii	"PIO_PPDDR\000"
 3536      50504444 
 3536      5200
 3537              	.LASF146:
 3538 050a 5F50696E 		.ascii	"_Pin\000"
 3538      00
 3539              	.LASF33:
 3540 050f 50494F5F 		.ascii	"PIO_IER\000"
 3540      49455200 
 3541              	.LASF163:
ARM GAS  /tmp/ccdAyFVV.s 			page 67


 3542 0517 52656164 		.ascii	"ReadByte\000"
 3542      42797465 
 3542      00
 3543              	.LASF158:
 3544 0520 496E6974 		.ascii	"Init\000"
 3544      00
 3545              	.LASF21:
 3546 0525 50494F5F 		.ascii	"PIO_OER\000"
 3546      4F455200 
 3547              	.LASF38:
 3548 052d 50494F5F 		.ascii	"PIO_MDDR\000"
 3548      4D444452 
 3548      00
 3549              	.LASF89:
 3550 0536 50494F5F 		.ascii	"PIO_TNPR\000"
 3550      544E5052 
 3550      00
 3551              	.LASF133:
 3552 053f 5457495F 		.ascii	"TWI_RPR\000"
 3552      52505200 
 3553              	.LASF103:
 3554 0547 434B4752 		.ascii	"CKGR_PLLAR\000"
 3554      5F504C4C 
 3554      415200
 3555              	.LASF159:
 3556 0552 57726974 		.ascii	"WriteByte\000"
 3556      65427974 
 3556      6500
 3557              	.LASF142:
 3558 055c 5457495F 		.ascii	"TWI_PTSR\000"
 3558      50545352 
 3558      00
 3559              	.LASF67:
 3560 0565 50494F5F 		.ascii	"PIO_FELLSR\000"
 3560      46454C4C 
 3560      535200
 3561              	.LASF122:
 3562 0570 5457495F 		.ascii	"TWI_CR\000"
 3562      435200
 3563              	.LASF77:
 3564 0577 50494F5F 		.ascii	"PIO_PCMR\000"
 3564      50434D52 
 3564      00
 3565              	.LASF145:
 3566 0580 61747472 		.ascii	"attribute\000"
 3566      69627574 
 3566      6500
 3567              	.LASF1:
 3568 058a 756E7369 		.ascii	"unsigned char\000"
 3568      676E6564 
 3568      20636861 
 3568      7200
 3569              	.LASF27:
 3570 0598 50494F5F 		.ascii	"PIO_IFSR\000"
 3570      49465352 
 3570      00
 3571              	.LASF129:
ARM GAS  /tmp/ccdAyFVV.s 			page 68


 3572 05a1 5457495F 		.ascii	"TWI_IDR\000"
 3572      49445200 
 3573              	.LASF160:
 3574 05a9 5F5A4E33 		.ascii	"_ZN3I2C4InitEv\000"
 3574      49324334 
 3574      496E6974 
 3574      457600
 3575              	.LASF35:
 3576 05b8 50494F5F 		.ascii	"PIO_IMR\000"
 3576      494D5200 
 3577              	.LASF55:
 3578 05c0 50494F5F 		.ascii	"PIO_OWER\000"
 3578      4F574552 
 3578      00
 3579              	.LASF26:
 3580 05c9 50494F5F 		.ascii	"PIO_IFDR\000"
 3580      49464452 
 3580      00
 3581              	.LASF30:
 3582 05d2 50494F5F 		.ascii	"PIO_CODR\000"
 3582      434F4452 
 3582      00
 3583              	.LASF119:
 3584 05db 504D435F 		.ascii	"PMC_PCSR1\000"
 3584      50435352 
 3584      3100
 3585              	.LASF84:
 3586 05e5 50494F5F 		.ascii	"PIO_RCR\000"
 3586      52435200 
 3587              	.LASF109:
 3588 05ed 504D435F 		.ascii	"PMC_IDR\000"
 3588      49445200 
 3589              	.LASF155:
 3590 05f5 54776964 		.ascii	"Twid\000"
 3590      00
 3591              	.LASF147:
 3592 05fa 5F417379 		.ascii	"_Async\000"
 3592      6E6300
 3593              	.LASF37:
 3594 0601 50494F5F 		.ascii	"PIO_MDER\000"
 3594      4D444552 
 3594      00
 3595              	.LASF181:
 3596 060a 6932632E 		.ascii	"i2c.cpp\000"
 3596      63707000 
 3597              	.LASF68:
 3598 0612 50494F5F 		.ascii	"PIO_REHLSR\000"
 3598      5245484C 
 3598      535200
 3599              	.LASF127:
 3600 061d 5457495F 		.ascii	"TWI_SR\000"
 3600      535200
 3601              	.LASF104:
 3602 0624 434B4752 		.ascii	"CKGR_PLLBR\000"
 3602      5F504C4C 
 3602      425200
 3603              	.LASF156:
ARM GAS  /tmp/ccdAyFVV.s 			page 69


 3604 062f 63686172 		.ascii	"char\000"
 3604      00
 3605              	.LASF175:
 3606 0634 5457495F 		.ascii	"TWI_ConfigureMaster\000"
 3606      436F6E66 
 3606      69677572 
 3606      654D6173 
 3606      74657200 
 3607              	.LASF60:
 3608 0648 50494F5F 		.ascii	"PIO_AIMDR\000"
 3608      41494D44 
 3608      5200
 3609              	.LASF154:
 3610 0652 70547261 		.ascii	"pTransfer\000"
 3610      6E736665 
 3610      7200
 3611              	.LASF49:
 3612 065c 50494F5F 		.ascii	"PIO_IFSCSR\000"
 3612      49465343 
 3612      535200
 3613              	.LASF178:
 3614 0667 54574944 		.ascii	"TWID_Write\000"
 3614      5F577269 
 3614      746500
 3615              	.LASF97:
 3616 0672 504D435F 		.ascii	"PMC_SCSR\000"
 3616      53435352 
 3616      00
 3617              	.LASF128:
 3618 067b 5457495F 		.ascii	"TWI_IER\000"
 3618      49455200 
 3619              	.LASF40:
 3620 0683 52657365 		.ascii	"Reserved4\000"
 3620      72766564 
 3620      3400
 3621              	.LASF47:
 3622 068d 50494F5F 		.ascii	"PIO_IFSCDR\000"
 3622      49465343 
 3622      445200
 3623              	.LASF150:
 3624 0698 7053746F 		.ascii	"pStorage\000"
 3624      72616765 
 3624      00
 3625              	.LASF25:
 3626 06a1 50494F5F 		.ascii	"PIO_IFER\000"
 3626      49464552 
 3626      00
 3627              	.LASF87:
 3628 06aa 50494F5F 		.ascii	"PIO_RNPR\000"
 3628      524E5052 
 3628      00
 3629              	.LASF108:
 3630 06b3 504D435F 		.ascii	"PMC_IER\000"
 3630      49455200 
 3631              	.LASF94:
 3632 06bb 33506D63 		.ascii	"3Pmc\000"
 3632      00
ARM GAS  /tmp/ccdAyFVV.s 			page 70


 3633              	.LASF112:
 3634 06c0 504D435F 		.ascii	"PMC_FSMR\000"
 3634      46534D52 
 3634      00
 3635              	.LASF130:
 3636 06c9 5457495F 		.ascii	"TWI_IMR\000"
 3636      494D5200 
 3637              	.LASF125:
 3638 06d1 5457495F 		.ascii	"TWI_IADR\000"
 3638      49414452 
 3638      00
 3639              	.LASF162:
 3640 06da 5F5A4E33 		.ascii	"_ZN3I2C9WriteByteEhh\000"
 3640      49324339 
 3640      57726974 
 3640      65427974 
 3640      65456868 
 3641              	.LASF12:
 3642 06ef 75696E74 		.ascii	"uint32_t\000"
 3642      33325F74 
 3642      00
 3643              	.LASF174:
 3644 06f8 70696E73 		.ascii	"pins\000"
 3644      00
 3645              	.LASF139:
 3646 06fd 5457495F 		.ascii	"TWI_TNPR\000"
 3646      544E5052 
 3646      00
 3647              	.LASF148:
 3648 0706 73746174 		.ascii	"status\000"
 3648      757300
 3649              	.LASF53:
 3650 070d 50494F5F 		.ascii	"PIO_PPDSR\000"
 3650      50504453 
 3650      5200
 3651              	.LASF111:
 3652 0717 504D435F 		.ascii	"PMC_IMR\000"
 3652      494D5200 
 3653              	.LASF64:
 3654 071f 50494F5F 		.ascii	"PIO_LSR\000"
 3654      4C535200 
 3655              	.LASF90:
 3656 0727 50494F5F 		.ascii	"PIO_TNCR\000"
 3656      544E4352 
 3656      00
 3657              	.LASF134:
 3658 0730 5457495F 		.ascii	"TWI_RCR\000"
 3658      52435200 
 3659              	.LASF11:
 3660 0738 75696E74 		.ascii	"uint8_t\000"
 3660      385F7400 
 3661              	.LASF164:
 3662 0740 5F5A4E33 		.ascii	"_ZN3I2C8ReadByteEhh\000"
 3662      49324338 
 3662      52656164 
 3662      42797465 
 3662      45686800 
ARM GAS  /tmp/ccdAyFVV.s 			page 71


 3663              	.LASF167:
 3664 0754 5F5A4E33 		.ascii	"_ZN3I2C9ReadBytesEhhPhh\000"
 3664      49324339 
 3664      52656164 
 3664      42797465 
 3664      73456868 
 3665              	.LASF57:
 3666 076c 50494F5F 		.ascii	"PIO_OWSR\000"
 3666      4F575352 
 3666      00
 3667              	.LASF157:
 3668 0775 74776964 		.ascii	"twid_\000"
 3668      5F00
 3669              	.LASF126:
 3670 077b 5457495F 		.ascii	"TWI_CWGR\000"
 3670      43574752 
 3670      00
 3671              	.LASF113:
 3672 0784 504D435F 		.ascii	"PMC_FSPR\000"
 3672      46535052 
 3672      00
 3673              	.LASF48:
 3674 078d 50494F5F 		.ascii	"PIO_IFSCER\000"
 3674      49465343 
 3674      455200
 3675              	.LASF114:
 3676 0798 504D435F 		.ascii	"PMC_FOCR\000"
 3676      464F4352 
 3676      00
 3677              	.LASF95:
 3678 07a1 504D435F 		.ascii	"PMC_SCER\000"
 3678      53434552 
 3678      00
 3679              	.LASF56:
 3680 07aa 50494F5F 		.ascii	"PIO_OWDR\000"
 3680      4F574452 
 3680      00
 3681              	.LASF29:
 3682 07b3 50494F5F 		.ascii	"PIO_SODR\000"
 3682      534F4452 
 3682      00
 3683              	.LASF13:
 3684 07bc 526F5265 		.ascii	"RoReg\000"
 3684      6700
 3685              	.LASF132:
 3686 07c2 5457495F 		.ascii	"TWI_THR\000"
 3686      54485200 
 3687              	.LASF170:
 3688 07ca 73756241 		.ascii	"subAddress\000"
 3688      64647265 
 3688      737300
 3689              	.LASF116:
 3690 07d5 504D435F 		.ascii	"PMC_WPSR\000"
 3690      57505352 
 3690      00
 3691              		.ident	"GCC: (GNU Tools for ARM Embedded Processors) 4.9.3 20150529 (release) [ARM/embedded-4_9-br
ARM GAS  /tmp/ccdAyFVV.s 			page 72


DEFINED SYMBOLS
                            *ABS*:00000000 i2c.cpp
     /tmp/ccdAyFVV.s:19     .text._ZN3I2C4InitEv:00000000 $t
     /tmp/ccdAyFVV.s:25     .text._ZN3I2C4InitEv:00000000 _ZN3I2C4InitEv
     /tmp/ccdAyFVV.s:97     .text._ZN3I2C4InitEv:00000044 $d
   .ARM.exidx.text._ZN3I2C4InitEv:00000000 $d
     /tmp/ccdAyFVV.s:111    .text._ZN3I2C9WriteByteEhhh:00000000 $t
     /tmp/ccdAyFVV.s:117    .text._ZN3I2C9WriteByteEhhh:00000000 _ZN3I2C9WriteByteEhhh
.ARM.exidx.text._ZN3I2C9WriteByteEhhh:00000000 $d
     /tmp/ccdAyFVV.s:174    .text._ZN3I2C9WriteByteEhh:00000000 $t
     /tmp/ccdAyFVV.s:180    .text._ZN3I2C9WriteByteEhh:00000000 _ZN3I2C9WriteByteEhh
.ARM.exidx.text._ZN3I2C9WriteByteEhh:00000000 $d
     /tmp/ccdAyFVV.s:245    .text._ZN3I2C8ReadByteEhh:00000000 $t
     /tmp/ccdAyFVV.s:251    .text._ZN3I2C8ReadByteEhh:00000000 _ZN3I2C8ReadByteEhh
.ARM.exidx.text._ZN3I2C8ReadByteEhh:00000000 $d
     /tmp/ccdAyFVV.s:318    .text._ZN3I2C8ReadByteEh:00000000 $t
     /tmp/ccdAyFVV.s:324    .text._ZN3I2C8ReadByteEh:00000000 _ZN3I2C8ReadByteEh
.ARM.exidx.text._ZN3I2C8ReadByteEh:00000000 $d
     /tmp/ccdAyFVV.s:391    .text._ZN3I2C9ReadBytesEhhPhh:00000000 $t
     /tmp/ccdAyFVV.s:397    .text._ZN3I2C9ReadBytesEhhPhh:00000000 _ZN3I2C9ReadBytesEhhPhh
.ARM.exidx.text._ZN3I2C9ReadBytesEhhPhh:00000000 $d
     /tmp/ccdAyFVV.s:462    .rodata._ZL4pins:00000000 $d
     /tmp/ccdAyFVV.s:466    .rodata._ZL4pins:00000000 _ZL4pins
                     .debug_frame:00000010 $d

UNDEFINED SYMBOLS
PIO_Configure
TWI_ConfigureMaster
TWID_Initialize
__aeabi_unwind_cpp_pr0
TWID_Write
TWID_Read
