ARM GAS  /tmp/ccdAyFVV.s 			page 1


   1              		.syntax unified
   2              		.cpu cortex-m3
   3              		.fpu softvfp
   4              		.eabi_attribute 20, 1
   5              		.eabi_attribute 21, 1
   6              		.eabi_attribute 23, 3
   7              		.eabi_attribute 24, 1
   8              		.eabi_attribute 25, 1
   9              		.eabi_attribute 26, 1
  10              		.eabi_attribute 30, 2
  11              		.eabi_attribute 34, 1
  12              		.eabi_attribute 18, 4
  13              		.thumb
  14              		.file	"i2c.cpp"
  15              		.text
  16              	.Ltext0:
  17              		.cfi_sections	.debug_frame
  18              		.section	.text._ZN3I2C4InitEv,"ax",%progbits
  19              		.align	2
  20              		.p2align 4,,15
  21              		.global	_ZN3I2C4InitEv
  22              		.thumb
  23              		.thumb_func
  24              		.type	_ZN3I2C4InitEv, %function
  25              	_ZN3I2C4InitEv:
  26              		.fnstart
  27              	.LFB7:
  28              		.file 1 "i2c.cpp"
  29              		.loc 1 33 0
  30              		.cfi_startproc
  31              		@ args = 0, pretend = 0, frame = 0
  32              		@ frame_needed = 0, uses_anonymous_args = 0
  33              	.LVL0:
  34 0000 38B5     		push	{r3, r4, r5, lr}
  35              		.save {r3, r4, r5, lr}
  36              		.cfi_def_cfa_offset 16
  37              		.cfi_offset 3, -16
  38              		.cfi_offset 4, -12
  39              		.cfi_offset 5, -8
  40              		.cfi_offset 14, -4
  41              		.loc 1 33 0
  42 0002 0546     		mov	r5, r0
  43              	.LBB2:
  44              	.LBB3:
  45              		.loc 1 35 0
  46 0004 2023     		movs	r3, #32
  47              	@ 35 "i2c.cpp" 1
  48 0006 83F31188 		msr     BASEPRI, r3
  49              	@ 0 "" 2
  50              		.thumb
  51              	.LBE3:
  52              		.loc 1 36 0
  53 000a 0221     		movs	r1, #2
  54 000c 0D48     		ldr	r0, .L3
  55              	.LVL1:
  56 000e FFF7FEFF 		bl	PIO_Configure
  57              	.LVL2:
ARM GAS  /tmp/ccdAyFVV.s 			page 2


  58              		.loc 1 40 0
  59 0012 0D4C     		ldr	r4, .L3+4
  60              		.loc 1 37 0
  61 0014 0D4B     		ldr	r3, .L3+8
  62 0016 0E48     		ldr	r0, .L3+12
  63              		.loc 1 39 0
  64 0018 0E4A     		ldr	r2, .L3+16
  65              		.loc 1 38 0
  66 001a 4FF40021 		mov	r1, #524288
  67              		.loc 1 37 0
  68 001e C3F8E400 		str	r0, [r3, #228]
  69              		.loc 1 38 0
  70 0022 1961     		str	r1, [r3, #16]
  71              		.loc 1 40 0
  72 0024 2046     		mov	r0, r4
  73              		.loc 1 39 0
  74 0026 C3F8E420 		str	r2, [r3, #228]
  75              		.loc 1 40 0
  76 002a 0B49     		ldr	r1, .L3+20
  77 002c 0B4A     		ldr	r2, .L3+24
  78 002e FFF7FEFF 		bl	TWI_ConfigureMaster
  79              	.LVL3:
  80              		.loc 1 41 0
  81 0032 2846     		mov	r0, r5
  82 0034 2146     		mov	r1, r4
  83 0036 FFF7FEFF 		bl	TWID_Initialize
  84              	.LVL4:
  85              	.LBB4:
  86              		.loc 1 42 0
  87 003a 0023     		movs	r3, #0
  88              	@ 42 "i2c.cpp" 1
  89 003c 83F31188 		msr     BASEPRI, r3
  90              	@ 0 "" 2
  91              		.thumb
  92 0040 38BD     		pop	{r3, r4, r5, pc}
  93              	.LVL5:
  94              	.L4:
  95 0042 00BF     		.align	2
  96              	.L3:
  97 0044 00000000 		.word	.LANCHOR0
  98 0048 00800140 		.word	1073840128
  99 004c 00040E40 		.word	1074660352
 100 0050 00434D50 		.word	1347240704
 101 0054 01434D50 		.word	1347240705
 102 0058 A0860100 		.word	100000
 103 005c 0090D003 		.word	64000000
 104              	.LBE4:
 105              	.LBE2:
 106              		.cfi_endproc
 107              	.LFE7:
 108              		.fnend
 109              		.size	_ZN3I2C4InitEv, .-_ZN3I2C4InitEv
 110              		.section	.text._ZN3I2C9WriteByteEhhh,"ax",%progbits
 111              		.align	2
 112              		.p2align 4,,15
 113              		.global	_ZN3I2C9WriteByteEhhh
 114              		.thumb
ARM GAS  /tmp/ccdAyFVV.s 			page 3


 115              		.thumb_func
 116              		.type	_ZN3I2C9WriteByteEhhh, %function
 117              	_ZN3I2C9WriteByteEhhh:
 118              		.fnstart
 119              	.LFB8:
 120              		.loc 1 45 0
 121              		.cfi_startproc
 122              		@ args = 0, pretend = 0, frame = 8
 123              		@ frame_needed = 0, uses_anonymous_args = 0
 124              	.LVL6:
 125 0000 30B5     		push	{r4, r5, lr}
 126              		.save {r4, r5, lr}
 127              		.cfi_def_cfa_offset 12
 128              		.cfi_offset 4, -12
 129              		.cfi_offset 5, -8
 130              		.cfi_offset 14, -4
 131              		.pad #28
 132 0002 87B0     		sub	sp, sp, #28
 133              		.cfi_def_cfa_offset 40
 134              		.loc 1 45 0
 135 0004 06AC     		add	r4, sp, #24
 136 0006 04F8013D 		strb	r3, [r4, #-1]!
 137              	.LBB5:
 138              	.LBB6:
 139              		.loc 1 47 0
 140 000a 2023     		movs	r3, #32
 141              	.LVL7:
 142              	@ 47 "i2c.cpp" 1
 143 000c 83F31188 		msr     BASEPRI, r3
 144              	@ 0 "" 2
 145              		.thumb
 146              	.LBE6:
 147              		.loc 1 48 0
 148 0010 0123     		movs	r3, #1
 149 0012 0025     		movs	r5, #0
 150 0014 0193     		str	r3, [sp, #4]
 151 0016 0094     		str	r4, [sp]
 152 0018 0295     		str	r5, [sp, #8]
 153 001a FFF7FEFF 		bl	TWID_Write
 154              	.LVL8:
 155              	.LBB7:
 156              		.loc 1 49 0
 157 001e 2B46     		mov	r3, r5
 158              	@ 49 "i2c.cpp" 1
 159 0020 83F31188 		msr     BASEPRI, r3
 160              	@ 0 "" 2
 161              		.thumb
 162              	.LBE7:
 163              	.LBE5:
 164              		.loc 1 50 0
 165 0024 07B0     		add	sp, sp, #28
 166              		.cfi_def_cfa_offset 12
 167              		@ sp needed
 168 0026 30BD     		pop	{r4, r5, pc}
 169              		.cfi_endproc
 170              	.LFE8:
 171              		.fnend
ARM GAS  /tmp/ccdAyFVV.s 			page 4


 172              		.size	_ZN3I2C9WriteByteEhhh, .-_ZN3I2C9WriteByteEhhh
 173              		.section	.text._ZN3I2C9WriteByteEhh,"ax",%progbits
 174              		.align	2
 175              		.p2align 4,,15
 176              		.global	_ZN3I2C9WriteByteEhh
 177              		.thumb
 178              		.thumb_func
 179              		.type	_ZN3I2C9WriteByteEhh, %function
 180              	_ZN3I2C9WriteByteEhh:
 181              		.fnstart
 182              	.LFB9:
 183              		.loc 1 52 0
 184              		.cfi_startproc
 185              		@ args = 0, pretend = 0, frame = 8
 186              		@ frame_needed = 0, uses_anonymous_args = 0
 187              	.LVL9:
 188 0000 30B5     		push	{r4, r5, lr}
 189              		.save {r4, r5, lr}
 190              		.cfi_def_cfa_offset 12
 191              		.cfi_offset 4, -12
 192              		.cfi_offset 5, -8
 193              		.cfi_offset 14, -4
 194              		.pad #28
 195 0002 87B0     		sub	sp, sp, #28
 196              		.cfi_def_cfa_offset 40
 197              		.loc 1 52 0
 198 0004 06AD     		add	r5, sp, #24
 199              	.LBB8:
 200              	.LBB9:
 201              		.loc 1 54 0
 202 0006 2023     		movs	r3, #32
 203              	.LBE9:
 204              	.LBE8:
 205              		.loc 1 52 0
 206 0008 05F8012D 		strb	r2, [r5, #-1]!
 207              	.LBB12:
 208              	.LBB10:
 209              		.loc 1 54 0
 210              	@ 54 "i2c.cpp" 1
 211 000c 83F31188 		msr     BASEPRI, r3
 212              	@ 0 "" 2
 213              		.thumb
 214              	.LBE10:
 215              		.loc 1 55 0
 216 0010 0024     		movs	r4, #0
 217 0012 0123     		movs	r3, #1
 218 0014 0193     		str	r3, [sp, #4]
 219 0016 0095     		str	r5, [sp]
 220 0018 2346     		mov	r3, r4
 221 001a 0294     		str	r4, [sp, #8]
 222 001c 2246     		mov	r2, r4
 223              	.LVL10:
 224 001e FFF7FEFF 		bl	TWID_Write
 225              	.LVL11:
 226              	.LBB11:
 227              		.loc 1 56 0
 228 0022 2346     		mov	r3, r4
ARM GAS  /tmp/ccdAyFVV.s 			page 5


 229              	@ 56 "i2c.cpp" 1
 230 0024 83F31188 		msr     BASEPRI, r3
 231              	@ 0 "" 2
 232              		.thumb
 233              	.LBE11:
 234              	.LBE12:
 235              		.loc 1 57 0
 236 0028 07B0     		add	sp, sp, #28
 237              		.cfi_def_cfa_offset 12
 238              		@ sp needed
 239 002a 30BD     		pop	{r4, r5, pc}
 240              		.cfi_endproc
 241              	.LFE9:
 242              		.fnend
 243              		.size	_ZN3I2C9WriteByteEhh, .-_ZN3I2C9WriteByteEhh
 244              		.section	.text._ZN3I2C8ReadByteEhh,"ax",%progbits
 245              		.align	2
 246              		.p2align 4,,15
 247              		.global	_ZN3I2C8ReadByteEhh
 248              		.thumb
 249              		.thumb_func
 250              		.type	_ZN3I2C8ReadByteEhh, %function
 251              	_ZN3I2C8ReadByteEhh:
 252              		.fnstart
 253              	.LFB10:
 254              		.loc 1 59 0
 255              		.cfi_startproc
 256              		@ args = 0, pretend = 0, frame = 8
 257              		@ frame_needed = 0, uses_anonymous_args = 0
 258              	.LVL12:
 259 0000 70B5     		push	{r4, r5, r6, lr}
 260              		.save {r4, r5, r6, lr}
 261              		.cfi_def_cfa_offset 16
 262              		.cfi_offset 4, -16
 263              		.cfi_offset 5, -12
 264              		.cfi_offset 6, -8
 265              		.cfi_offset 14, -4
 266              	.LBB13:
 267              	.LBB14:
 268              		.loc 1 61 0
 269 0002 2023     		movs	r3, #32
 270              	.LBE14:
 271              	.LBE13:
 272              		.loc 1 59 0
 273              		.pad #24
 274 0004 86B0     		sub	sp, sp, #24
 275              		.cfi_def_cfa_offset 40
 276              	.LBB17:
 277              	.LBB15:
 278              		.loc 1 61 0
 279              	@ 61 "i2c.cpp" 1
 280 0006 83F31188 		msr     BASEPRI, r3
 281              	@ 0 "" 2
 282              		.thumb
 283              	.LBE15:
 284              		.loc 1 65 0
 285 000a 0024     		movs	r4, #0
ARM GAS  /tmp/ccdAyFVV.s 			page 6


 286 000c 0DF11705 		add	r5, sp, #23
 287 0010 0123     		movs	r3, #1
 288 0012 0095     		str	r5, [sp]
 289 0014 0294     		str	r4, [sp, #8]
 290 0016 0193     		str	r3, [sp, #4]
 291 0018 FFF7FEFF 		bl	TWID_Read
 292              	.LVL13:
 293 001c 08B9     		cbnz	r0, .L10
 294              		.loc 1 65 0 is_stmt 0 discriminator 2
 295 001e 9DF81760 		ldrb	r6, [sp, #23]	@ zero_extendqisi2
 296              	.LVL14:
 297              	.L10:
 298              	.LBB16:
 299              		.loc 1 66 0 is_stmt 1
 300 0022 0023     		movs	r3, #0
 301              	@ 66 "i2c.cpp" 1
 302 0024 83F31188 		msr     BASEPRI, r3
 303              	@ 0 "" 2
 304              		.thumb
 305              	.LBE16:
 306              	.LBE17:
 307              		.loc 1 68 0
 308 0028 3046     		mov	r0, r6
 309 002a 06B0     		add	sp, sp, #24
 310              		.cfi_def_cfa_offset 16
 311              		@ sp needed
 312 002c 70BD     		pop	{r4, r5, r6, pc}
 313              		.cfi_endproc
 314              	.LFE10:
 315              		.fnend
 316              		.size	_ZN3I2C8ReadByteEhh, .-_ZN3I2C8ReadByteEhh
 317              		.section	.text._ZN3I2C8ReadByteEh,"ax",%progbits
 318              		.align	2
 319              		.p2align 4,,15
 320              		.global	_ZN3I2C8ReadByteEh
 321              		.thumb
 322              		.thumb_func
 323              		.type	_ZN3I2C8ReadByteEh, %function
 324              	_ZN3I2C8ReadByteEh:
 325              		.fnstart
 326              	.LFB11:
 327              		.loc 1 70 0
 328              		.cfi_startproc
 329              		@ args = 0, pretend = 0, frame = 8
 330              		@ frame_needed = 0, uses_anonymous_args = 0
 331              	.LVL15:
 332 0000 30B5     		push	{r4, r5, lr}
 333              		.save {r4, r5, lr}
 334              		.cfi_def_cfa_offset 12
 335              		.cfi_offset 4, -12
 336              		.cfi_offset 5, -8
 337              		.cfi_offset 14, -4
 338              	.LBB18:
 339              	.LBB19:
 340              		.loc 1 72 0
 341 0002 2023     		movs	r3, #32
 342              	.LBE19:
ARM GAS  /tmp/ccdAyFVV.s 			page 7


 343              	.LBE18:
 344              		.loc 1 70 0
 345              		.pad #28
 346 0004 87B0     		sub	sp, sp, #28
 347              		.cfi_def_cfa_offset 40
 348              	.LBB22:
 349              	.LBB20:
 350              		.loc 1 72 0
 351              	@ 72 "i2c.cpp" 1
 352 0006 83F31188 		msr     BASEPRI, r3
 353              	@ 0 "" 2
 354              		.thumb
 355              	.LBE20:
 356              		.loc 1 76 0
 357 000a 0123     		movs	r3, #1
 358 000c 0022     		movs	r2, #0
 359 000e 0DF11704 		add	r4, sp, #23
 360 0012 0193     		str	r3, [sp, #4]
 361 0014 0094     		str	r4, [sp]
 362 0016 0292     		str	r2, [sp, #8]
 363 0018 1346     		mov	r3, r2
 364 001a FFF7FEFF 		bl	TWID_Read
 365              	.LVL16:
 366 001e 08B9     		cbnz	r0, .L14
 367              		.loc 1 76 0 is_stmt 0 discriminator 2
 368 0020 9DF81750 		ldrb	r5, [sp, #23]	@ zero_extendqisi2
 369              	.LVL17:
 370              	.L14:
 371              	.LBB21:
 372              		.loc 1 77 0 is_stmt 1
 373 0024 0023     		movs	r3, #0
 374              	@ 77 "i2c.cpp" 1
 375 0026 83F31188 		msr     BASEPRI, r3
 376              	@ 0 "" 2
 377              		.thumb
 378              	.LBE21:
 379              	.LBE22:
 380              		.loc 1 79 0
 381 002a 2846     		mov	r0, r5
 382 002c 07B0     		add	sp, sp, #28
 383              		.cfi_def_cfa_offset 12
 384              		@ sp needed
 385 002e 30BD     		pop	{r4, r5, pc}
 386              		.cfi_endproc
 387              	.LFE11:
 388              		.fnend
 389              		.size	_ZN3I2C8ReadByteEh, .-_ZN3I2C8ReadByteEh
 390              		.section	.text._ZN3I2C9ReadBytesEhhPhh,"ax",%progbits
 391              		.align	2
 392              		.p2align 4,,15
 393              		.global	_ZN3I2C9ReadBytesEhhPhh
 394              		.thumb
 395              		.thumb_func
 396              		.type	_ZN3I2C9ReadBytesEhhPhh, %function
 397              	_ZN3I2C9ReadBytesEhhPhh:
 398              		.fnstart
 399              	.LFB12:
ARM GAS  /tmp/ccdAyFVV.s 			page 8


 400              		.loc 1 82 0
 401              		.cfi_startproc
 402              		@ args = 4, pretend = 0, frame = 0
 403              		@ frame_needed = 0, uses_anonymous_args = 0
 404              	.LVL18:
 405 0000 70B5     		push	{r4, r5, r6, lr}
 406              		.save {r4, r5, r6, lr}
 407              		.cfi_def_cfa_offset 16
 408              		.cfi_offset 4, -16
 409              		.cfi_offset 5, -12
 410              		.cfi_offset 6, -8
 411              		.cfi_offset 14, -4
 412              		.pad #16
 413 0002 84B0     		sub	sp, sp, #16
 414              		.cfi_def_cfa_offset 32
 415              		.loc 1 82 0
 416 0004 1E46     		mov	r6, r3
 417 0006 9DF82040 		ldrb	r4, [sp, #32]	@ zero_extendqisi2
 418              	.LBB23:
 419              	.LBB24:
 420              		.loc 1 83 0
 421 000a 2023     		movs	r3, #32
 422              	.LVL19:
 423              	@ 83 "i2c.cpp" 1
 424 000c 83F31188 		msr     BASEPRI, r3
 425              	@ 0 "" 2
 426              	.LVL20:
 427              		.thumb
 428              	.LBE24:
 429              		.loc 1 86 0
 430 0010 0025     		movs	r5, #0
 431 0012 0194     		str	r4, [sp, #4]
 432 0014 0096     		str	r6, [sp]
 433 0016 0295     		str	r5, [sp, #8]
 434 0018 0123     		movs	r3, #1
 435 001a FFF7FEFF 		bl	TWID_Read
 436              	.LVL21:
 437 001e A842     		cmp	r0, r5
 438              		.loc 1 84 0
 439 0020 18BF     		it	ne
 440 0022 2C46     		movne	r4, r5
 441              	.LVL22:
 442              	.LBB25:
 443              		.loc 1 89 0
 444 0024 2B46     		mov	r3, r5
 445              	@ 89 "i2c.cpp" 1
 446 0026 83F31188 		msr     BASEPRI, r3
 447              	@ 0 "" 2
 448              		.thumb
 449              	.LBE25:
 450              	.LBE23:
 451              		.loc 1 91 0
 452 002a 2046     		mov	r0, r4
 453 002c 04B0     		add	sp, sp, #16
 454              		.cfi_def_cfa_offset 16
 455              		@ sp needed
 456 002e 70BD     		pop	{r4, r5, r6, pc}
ARM GAS  /tmp/ccdAyFVV.s 			page 9


 457              		.cfi_endproc
 458              	.LFE12:
 459              		.fnend
 460              		.size	_ZN3I2C9ReadBytesEhhPhh, .-_ZN3I2C9ReadBytesEhhPhh
 461              		.section	.rodata._ZL4pins,"a",%progbits
 462              		.align	2
 463              		.set	.LANCHOR0,. + 0
 464              		.type	_ZL4pins, %object
 465              		.size	_ZL4pins, 24
 466              	_ZL4pins:
 467 0000 08000000 		.word	8
 468 0004 000E0E40 		.word	1074662912
 469 0008 0B       		.byte	11
 470 0009 00       		.byte	0
 471 000a 00       		.byte	0
 472 000b 00       		.space	1
 473 000c 10000000 		.word	16
 474 0010 000E0E40 		.word	1074662912
 475 0014 0B       		.byte	11
 476 0015 00       		.byte	0
 477 0016 00       		.byte	0
 478 0017 00       		.space	1
 479              		.text
 480              	.Letext0:
 481              		.file 2 "/opt/gcc-arm-none-eabi-4_9-2015q3/arm-none-eabi/include/machine/_default_types.h"
 482              		.file 3 "/opt/gcc-arm-none-eabi-4_9-2015q3/arm-none-eabi/include/sys/_stdint.h"
 483              		.file 4 "../../ext/ChibiOS/os/hal/platforms/AT91SAM3S/SAM3S.h"
 484              		.file 5 "../../ext/ChibiOS/os/hal/platforms/AT91SAM3S/pio.h"
 485              		.file 6 "../../ext/ChibiOS/os/hal/platforms/AT91SAM3S/async.h"
 486              		.file 7 "../../ext/ChibiOS/os/hal/platforms/AT91SAM3S/atmel_twid.h"
 487              		.file 8 "i2c.h"
 488              		.file 9 "../../ext/ChibiOS/os/hal/platforms/AT91SAM3S/atmel_twi.h"