ARM GAS  /tmp/cc86YirX.s 			page 1


   1              		.syntax unified
   2              		.cpu cortex-m3
   3              		.fpu softvfp
   4              		.eabi_attribute 20, 1
   5              		.eabi_attribute 21, 1
   6              		.eabi_attribute 23, 3
   7              		.eabi_attribute 24, 1
   8              		.eabi_attribute 25, 1
   9              		.eabi_attribute 26, 1
  10              		.eabi_attribute 30, 2
  11              		.eabi_attribute 34, 1
  12              		.eabi_attribute 18, 4
  13              		.thumb
  14              		.file	"rtc.cpp"
  15              		.text
  16              	.Ltext0:
  17              		.cfi_sections	.debug_frame
  18              		.section	.text._ZN4RTC112decimalToBCDEc,"ax",%progbits
  19              		.align	2
  20              		.p2align 4,,15
  21              		.global	_ZN4RTC112decimalToBCDEc
  22              		.thumb
  23              		.thumb_func
  24              		.type	_ZN4RTC112decimalToBCDEc, %function
  25              	_ZN4RTC112decimalToBCDEc:
  26              		.fnstart
  27              	.LFB10:
  28              		.file 1 "rtc.cpp"
  29              		.loc 1 13 0
  30              		.cfi_startproc
  31              		@ args = 0, pretend = 0, frame = 0
  32              		@ frame_needed = 0, uses_anonymous_args = 0
  33              		@ link register save eliminated.
  34              	.LVL0:
  35              		.loc 1 14 0
  36 0000 054B     		ldr	r3, .L2
  37 0002 A3FB0123 		umull	r2, r3, r3, r1
  38 0006 DB08     		lsrs	r3, r3, #3
  39 0008 03EB8300 		add	r0, r3, r3, lsl #2
  40              	.LVL1:
  41 000c A1EB4001 		sub	r1, r1, r0, lsl #1
  42              	.LVL2:
  43 0010 01EB0310 		add	r0, r1, r3, lsl #4
  44              		.loc 1 15 0
  45 0014 C0B2     		uxtb	r0, r0
  46 0016 7047     		bx	lr
  47              	.L3:
  48              		.align	2
  49              	.L2:
  50 0018 CDCCCCCC 		.word	-858993459
  51              		.cfi_endproc
  52              	.LFE10:
  53              		.cantunwind
  54              		.fnend
  55              		.size	_ZN4RTC112decimalToBCDEc, .-_ZN4RTC112decimalToBCDEc
  56              		.section	.text._ZN4RTC110rtcSetHourEc,"ax",%progbits
  57              		.align	2
ARM GAS  /tmp/cc86YirX.s 			page 2


  58              		.p2align 4,,15
  59              		.global	_ZN4RTC110rtcSetHourEc
  60              		.thumb
  61              		.thumb_func
  62              		.type	_ZN4RTC110rtcSetHourEc, %function
  63              	_ZN4RTC110rtcSetHourEc:
  64              		.fnstart
  65              	.LFB11:
  66              		.loc 1 18 0
  67              		.cfi_startproc
  68              		@ args = 0, pretend = 0, frame = 0
  69              		@ frame_needed = 0, uses_anonymous_args = 0
  70              		@ link register save eliminated.
  71              	.LVL3:
  72              	.LBB54:
  73              	.LBB55:
  74              		.loc 1 14 0
  75 0000 074A     		ldr	r2, .L5
  76              	.LBE55:
  77              	.LBE54:
  78              	.LBB57:
  79              	.LBB58:
  80              		.loc 1 101 0
  81 0002 0068     		ldr	r0, [r0]
  82              	.LVL4:
  83              	.LBE58:
  84              	.LBE57:
  85              	.LBB60:
  86              	.LBB56:
  87              		.loc 1 14 0
  88 0004 A2FB0132 		umull	r3, r2, r2, r1
  89 0008 D208     		lsrs	r2, r2, #3
  90 000a 02EB8203 		add	r3, r2, r2, lsl #2
  91 000e A1EB4301 		sub	r1, r1, r3, lsl #1
  92              	.LVL5:
  93 0012 01EB0213 		add	r3, r1, r2, lsl #4
  94              	.LBE56:
  95              	.LBE60:
  96              	.LBB61:
  97              	.LBB59:
  98              		.loc 1 101 0
  99 0016 DBB2     		uxtb	r3, r3
 100 0018 6821     		movs	r1, #104
 101 001a 0222     		movs	r2, #2
 102 001c FFF7FEBF 		b	_ZN3I2C9WriteByteEhhh
 103              	.LVL6:
 104              	.L6:
 105              		.align	2
 106              	.L5:
 107 0020 CDCCCCCC 		.word	-858993459
 108              	.LBE59:
 109              	.LBE61:
 110              		.cfi_endproc
 111              	.LFE11:
 112              		.cantunwind
 113              		.fnend
 114              		.size	_ZN4RTC110rtcSetHourEc, .-_ZN4RTC110rtcSetHourEc
ARM GAS  /tmp/cc86YirX.s 			page 3


 115              		.section	.text._ZN4RTC110rtcGetHourEv,"ax",%progbits
 116              		.align	2
 117              		.p2align 4,,15
 118              		.global	_ZN4RTC110rtcGetHourEv
 119              		.thumb
 120              		.thumb_func
 121              		.type	_ZN4RTC110rtcGetHourEv, %function
 122              	_ZN4RTC110rtcGetHourEv:
 123              		.fnstart
 124              	.LFB12:
 125              		.loc 1 24 0
 126              		.cfi_startproc
 127              		@ args = 0, pretend = 0, frame = 0
 128              		@ frame_needed = 0, uses_anonymous_args = 0
 129              		@ link register save eliminated.
 130              	.LVL7:
 131              	.LBB62:
 132              	.LBB63:
 133              		.loc 1 99 0
 134 0000 0068     		ldr	r0, [r0]
 135              	.LVL8:
 136 0002 6821     		movs	r1, #104
 137 0004 0222     		movs	r2, #2
 138 0006 FFF7FEBF 		b	_ZN3I2C8ReadByteEhh
 139              	.LVL9:
 140              	.LBE63:
 141              	.LBE62:
 142              		.cfi_endproc
 143              	.LFE12:
 144              		.cantunwind
 145              		.fnend
 146              		.size	_ZN4RTC110rtcGetHourEv, .-_ZN4RTC110rtcGetHourEv
 147 000a 00BF     		.section	.text._ZN4RTC113rtcSetMinutesEc,"ax",%progbits
 148              		.align	2
 149              		.p2align 4,,15
 150              		.global	_ZN4RTC113rtcSetMinutesEc
 151              		.thumb
 152              		.thumb_func
 153              		.type	_ZN4RTC113rtcSetMinutesEc, %function
 154              	_ZN4RTC113rtcSetMinutesEc:
 155              		.fnstart
 156              	.LFB13:
 157              		.loc 1 29 0
 158              		.cfi_startproc
 159              		@ args = 0, pretend = 0, frame = 0
 160              		@ frame_needed = 0, uses_anonymous_args = 0
 161              		@ link register save eliminated.
 162              	.LVL10:
 163              	.LBB64:
 164              	.LBB65:
 165              		.loc 1 14 0
 166 0000 074A     		ldr	r2, .L9
 167              	.LBE65:
 168              	.LBE64:
 169              	.LBB67:
 170              	.LBB68:
 171              		.loc 1 101 0
ARM GAS  /tmp/cc86YirX.s 			page 4


 172 0002 0068     		ldr	r0, [r0]
 173              	.LVL11:
 174              	.LBE68:
 175              	.LBE67:
 176              	.LBB70:
 177              	.LBB66:
 178              		.loc 1 14 0
 179 0004 A2FB0132 		umull	r3, r2, r2, r1
 180 0008 D208     		lsrs	r2, r2, #3
 181 000a 02EB8203 		add	r3, r2, r2, lsl #2
 182 000e A1EB4301 		sub	r1, r1, r3, lsl #1
 183              	.LVL12:
 184 0012 01EB0213 		add	r3, r1, r2, lsl #4
 185              	.LBE66:
 186              	.LBE70:
 187              	.LBB71:
 188              	.LBB69:
 189              		.loc 1 101 0
 190 0016 DBB2     		uxtb	r3, r3
 191 0018 6821     		movs	r1, #104
 192 001a 0122     		movs	r2, #1
 193 001c FFF7FEBF 		b	_ZN3I2C9WriteByteEhhh
 194              	.LVL13:
 195              	.L10:
 196              		.align	2
 197              	.L9:
 198 0020 CDCCCCCC 		.word	-858993459
 199              	.LBE69:
 200              	.LBE71:
 201              		.cfi_endproc
 202              	.LFE13:
 203              		.cantunwind
 204              		.fnend
 205              		.size	_ZN4RTC113rtcSetMinutesEc, .-_ZN4RTC113rtcSetMinutesEc
 206              		.section	.text._ZN4RTC113rtcGetMinutesEv,"ax",%progbits
 207              		.align	2
 208              		.p2align 4,,15
 209              		.global	_ZN4RTC113rtcGetMinutesEv
 210              		.thumb
 211              		.thumb_func
 212              		.type	_ZN4RTC113rtcGetMinutesEv, %function
 213              	_ZN4RTC113rtcGetMinutesEv:
 214              		.fnstart
 215              	.LFB14:
 216              		.loc 1 33 0
 217              		.cfi_startproc
 218              		@ args = 0, pretend = 0, frame = 0
 219              		@ frame_needed = 0, uses_anonymous_args = 0
 220              		@ link register save eliminated.
 221              	.LVL14:
 222              	.LBB72:
 223              	.LBB73:
 224              		.loc 1 99 0
 225 0000 0068     		ldr	r0, [r0]
 226              	.LVL15:
 227 0002 6821     		movs	r1, #104
 228 0004 0122     		movs	r2, #1
ARM GAS  /tmp/cc86YirX.s 			page 5


 229 0006 FFF7FEBF 		b	_ZN3I2C8ReadByteEhh
 230              	.LVL16:
 231              	.LBE73:
 232              	.LBE72:
 233              		.cfi_endproc
 234              	.LFE14:
 235              		.cantunwind
 236              		.fnend
 237              		.size	_ZN4RTC113rtcGetMinutesEv, .-_ZN4RTC113rtcGetMinutesEv
 238 000a 00BF     		.section	.text._ZN4RTC113rtcSetSecondsEc,"ax",%progbits
 239              		.align	2
 240              		.p2align 4,,15
 241              		.global	_ZN4RTC113rtcSetSecondsEc
 242              		.thumb
 243              		.thumb_func
 244              		.type	_ZN4RTC113rtcSetSecondsEc, %function
 245              	_ZN4RTC113rtcSetSecondsEc:
 246              		.fnstart
 247              	.LFB15:
 248              		.loc 1 37 0
 249              		.cfi_startproc
 250              		@ args = 0, pretend = 0, frame = 0
 251              		@ frame_needed = 0, uses_anonymous_args = 0
 252              		@ link register save eliminated.
 253              	.LVL17:
 254              	.LBB74:
 255              	.LBB75:
 256              		.loc 1 14 0
 257 0000 074A     		ldr	r2, .L13
 258              	.LBE75:
 259              	.LBE74:
 260              	.LBB77:
 261              	.LBB78:
 262              		.loc 1 101 0
 263 0002 0068     		ldr	r0, [r0]
 264              	.LVL18:
 265              	.LBE78:
 266              	.LBE77:
 267              	.LBB80:
 268              	.LBB76:
 269              		.loc 1 14 0
 270 0004 A2FB0132 		umull	r3, r2, r2, r1
 271 0008 D208     		lsrs	r2, r2, #3
 272 000a 02EB8203 		add	r3, r2, r2, lsl #2
 273 000e A1EB4301 		sub	r1, r1, r3, lsl #1
 274              	.LVL19:
 275 0012 01EB0213 		add	r3, r1, r2, lsl #4
 276              	.LBE76:
 277              	.LBE80:
 278              	.LBB81:
 279              	.LBB79:
 280              		.loc 1 101 0
 281 0016 DBB2     		uxtb	r3, r3
 282 0018 6821     		movs	r1, #104
 283 001a 0022     		movs	r2, #0
 284 001c FFF7FEBF 		b	_ZN3I2C9WriteByteEhhh
 285              	.LVL20:
ARM GAS  /tmp/cc86YirX.s 			page 6


 286              	.L14:
 287              		.align	2
 288              	.L13:
 289 0020 CDCCCCCC 		.word	-858993459
 290              	.LBE79:
 291              	.LBE81:
 292              		.cfi_endproc
 293              	.LFE15:
 294              		.cantunwind
 295              		.fnend
 296              		.size	_ZN4RTC113rtcSetSecondsEc, .-_ZN4RTC113rtcSetSecondsEc
 297              		.section	.text._ZN4RTC18bcdToDecEm,"ax",%progbits
 298              		.align	2
 299              		.p2align 4,,15
 300              		.global	_ZN4RTC18bcdToDecEm
 301              		.thumb
 302              		.thumb_func
 303              		.type	_ZN4RTC18bcdToDecEm, %function
 304              	_ZN4RTC18bcdToDecEm:
 305              		.fnstart
 306              	.LFB16:
 307              		.loc 1 41 0
 308              		.cfi_startproc
 309              		@ args = 0, pretend = 0, frame = 0
 310              		@ frame_needed = 0, uses_anonymous_args = 0
 311              		@ link register save eliminated.
 312              	.LVL21:
 313              		.loc 1 42 0
 314 0000 C1F30310 		ubfx	r0, r1, #4, #4
 315              	.LVL22:
 316 0004 00EB8000 		add	r0, r0, r0, lsl #2
 317 0008 01F00F01 		and	r1, r1, #15
 318              	.LVL23:
 319              		.loc 1 43 0
 320 000c 01EB4000 		add	r0, r1, r0, lsl #1
 321 0010 7047     		bx	lr
 322              		.cfi_endproc
 323              	.LFE16:
 324              		.cantunwind
 325              		.fnend
 326              		.size	_ZN4RTC18bcdToDecEm, .-_ZN4RTC18bcdToDecEm
 327 0012 00BF     		.section	.text._ZN4RTC113rtcGetSecondsEv,"ax",%progbits
 328              		.align	2
 329              		.p2align 4,,15
 330              		.global	_ZN4RTC113rtcGetSecondsEv
 331              		.thumb
 332              		.thumb_func
 333              		.type	_ZN4RTC113rtcGetSecondsEv, %function
 334              	_ZN4RTC113rtcGetSecondsEv:
 335              		.fnstart
 336              	.LFB17:
 337              		.loc 1 46 0
 338              		.cfi_startproc
 339              		@ args = 0, pretend = 0, frame = 0
 340              		@ frame_needed = 0, uses_anonymous_args = 0
 341              	.LVL24:
 342 0000 08B5     		push	{r3, lr}
ARM GAS  /tmp/cc86YirX.s 			page 7


 343              		.save {r3, lr}
 344              		.cfi_def_cfa_offset 8
 345              		.cfi_offset 3, -8
 346              		.cfi_offset 14, -4
 347              	.LBB82:
 348              	.LBB83:
 349              		.loc 1 99 0
 350 0002 6821     		movs	r1, #104
 351 0004 0022     		movs	r2, #0
 352 0006 0068     		ldr	r0, [r0]
 353              	.LVL25:
 354 0008 FFF7FEFF 		bl	_ZN3I2C8ReadByteEhh
 355              	.LVL26:
 356              	.LBE83:
 357              	.LBE82:
 358              	.LBB84:
 359              	.LBB85:
 360              		.loc 1 42 0
 361 000c C0F30313 		ubfx	r3, r0, #4, #4
 362 0010 03EB8303 		add	r3, r3, r3, lsl #2
 363 0014 00F00F00 		and	r0, r0, #15
 364              	.LVL27:
 365              	.LBE85:
 366              	.LBE84:
 367              		.loc 1 48 0
 368 0018 00EB4300 		add	r0, r0, r3, lsl #1
 369 001c 08BD     		pop	{r3, pc}
 370              		.cfi_endproc
 371              	.LFE17:
 372              		.fnend
 373              		.size	_ZN4RTC113rtcGetSecondsEv, .-_ZN4RTC113rtcGetSecondsEv
 374 001e 00BF     		.section	.text._ZN4RTC17bcd2binEh,"ax",%progbits
 375              		.align	2
 376              		.p2align 4,,15
 377              		.global	_ZN4RTC17bcd2binEh
 378              		.thumb
 379              		.thumb_func
 380              		.type	_ZN4RTC17bcd2binEh, %function
 381              	_ZN4RTC17bcd2binEh:
 382              		.fnstart
 383              	.LFB18:
 384              		.loc 1 51 0
 385              		.cfi_startproc
 386              		@ args = 0, pretend = 0, frame = 0
 387              		@ frame_needed = 0, uses_anonymous_args = 0
 388              		@ link register save eliminated.
 389              	.LVL28:
 390              		.loc 1 52 0
 391 0000 0811     		asrs	r0, r1, #4
 392              	.LVL29:
 393 0002 A0EB8000 		sub	r0, r0, r0, lsl #2
 394 0006 01EB4000 		add	r0, r1, r0, lsl #1
 395              		.loc 1 53 0
 396 000a C0B2     		uxtb	r0, r0
 397 000c 7047     		bx	lr
 398              		.cfi_endproc
 399              	.LFE18:
ARM GAS  /tmp/cc86YirX.s 			page 8


 400              		.cantunwind
 401              		.fnend
 402              		.size	_ZN4RTC17bcd2binEh, .-_ZN4RTC17bcd2binEh
 403 000e 00BF     		.section	.text._ZN4RTC17bin2bcdEh,"ax",%progbits
 404              		.align	2
 405              		.p2align 4,,15
 406              		.global	_ZN4RTC17bin2bcdEh
 407              		.thumb
 408              		.thumb_func
 409              		.type	_ZN4RTC17bin2bcdEh, %function
 410              	_ZN4RTC17bin2bcdEh:
 411              		.fnstart
 412              	.LFB19:
 413              		.loc 1 55 0
 414              		.cfi_startproc
 415              		@ args = 0, pretend = 0, frame = 0
 416              		@ frame_needed = 0, uses_anonymous_args = 0
 417              		@ link register save eliminated.
 418              	.LVL30:
 419              		.loc 1 56 0
 420 0000 044B     		ldr	r3, .L20
 421 0002 A3FB0123 		umull	r2, r3, r3, r1
 422 0006 DB08     		lsrs	r3, r3, #3
 423 0008 03EB4303 		add	r3, r3, r3, lsl #1
 424 000c 01EB4300 		add	r0, r1, r3, lsl #1
 425              	.LVL31:
 426              		.loc 1 57 0
 427 0010 C0B2     		uxtb	r0, r0
 428 0012 7047     		bx	lr
 429              	.L21:
 430              		.align	2
 431              	.L20:
 432 0014 CDCCCCCC 		.word	-858993459
 433              		.cfi_endproc
 434              	.LFE19:
 435              		.cantunwind
 436              		.fnend
 437              		.size	_ZN4RTC17bin2bcdEh, .-_ZN4RTC17bin2bcdEh
 438              		.section	.text._ZN4RTC17setTimeEccc,"ax",%progbits
 439              		.align	2
 440              		.p2align 4,,15
 441              		.global	_ZN4RTC17setTimeEccc
 442              		.thumb
 443              		.thumb_func
 444              		.type	_ZN4RTC17setTimeEccc, %function
 445              	_ZN4RTC17setTimeEccc:
 446              		.fnstart
 447              	.LFB20:
 448              		.loc 1 59 0
 449              		.cfi_startproc
 450              		@ args = 0, pretend = 0, frame = 0
 451              		@ frame_needed = 0, uses_anonymous_args = 0
 452              	.LVL32:
 453 0000 70B5     		push	{r4, r5, r6, lr}
 454              		.save {r4, r5, r6, lr}
 455              		.cfi_def_cfa_offset 16
 456              		.cfi_offset 4, -16
ARM GAS  /tmp/cc86YirX.s 			page 9


 457              		.cfi_offset 5, -12
 458              		.cfi_offset 6, -8
 459              		.cfi_offset 14, -4
 460              		.loc 1 59 0
 461 0002 1646     		mov	r6, r2
 462 0004 0446     		mov	r4, r0
 463 0006 1D46     		mov	r5, r3
 464              		.loc 1 60 0
 465 0008 FFF7FEFF 		bl	_ZN4RTC110rtcSetHourEc
 466              	.LVL33:
 467              		.loc 1 61 0
 468 000c 2046     		mov	r0, r4
 469 000e 3146     		mov	r1, r6
 470 0010 FFF7FEFF 		bl	_ZN4RTC113rtcSetMinutesEc
 471              	.LVL34:
 472              		.loc 1 62 0
 473 0014 2046     		mov	r0, r4
 474 0016 2946     		mov	r1, r5
 475              		.loc 1 63 0
 476 0018 BDE87040 		pop	{r4, r5, r6, lr}
 477              		.cfi_restore 14
 478              		.cfi_restore 6
 479              		.cfi_restore 5
 480              		.cfi_restore 4
 481              		.cfi_def_cfa_offset 0
 482              	.LVL35:
 483              		.loc 1 62 0
 484 001c FFF7FEBF 		b	_ZN4RTC113rtcSetSecondsEc
 485              	.LVL36:
 486              		.cfi_endproc
 487              	.LFE20:
 488              		.fnend
 489              		.size	_ZN4RTC17setTimeEccc, .-_ZN4RTC17setTimeEccc
 490              		.section	.text._ZN4RTC15resetEv,"ax",%progbits
 491              		.align	2
 492              		.p2align 4,,15
 493              		.global	_ZN4RTC15resetEv
 494              		.thumb
 495              		.thumb_func
 496              		.type	_ZN4RTC15resetEv, %function
 497              	_ZN4RTC15resetEv:
 498              		.fnstart
 499              	.LFB21:
 500              		.loc 1 65 0
 501              		.cfi_startproc
 502              		@ args = 0, pretend = 0, frame = 0
 503              		@ frame_needed = 0, uses_anonymous_args = 0
 504              	.LVL37:
 505 0000 38B5     		push	{r3, r4, r5, lr}
 506              		.save {r3, r4, r5, lr}
 507              		.cfi_def_cfa_offset 16
 508              		.cfi_offset 3, -16
 509              		.cfi_offset 4, -12
 510              		.cfi_offset 5, -8
 511              		.cfi_offset 14, -4
 512              		.loc 1 65 0
 513 0002 0546     		mov	r5, r0
ARM GAS  /tmp/cc86YirX.s 			page 10


 514              	.LBB86:
 515              		.loc 1 67 0
 516 0004 0824     		movs	r4, #8
 517              	.LVL38:
 518              	.L25:
 519              	.LBB87:
 520              	.LBB88:
 521              		.loc 1 101 0
 522 0006 2246     		mov	r2, r4
 523              	.LBE88:
 524              	.LBE87:
 525              		.loc 1 67 0
 526 0008 0134     		adds	r4, r4, #1
 527              	.LVL39:
 528              	.LBB91:
 529              	.LBB89:
 530              		.loc 1 101 0
 531 000a 2868     		ldr	r0, [r5]
 532 000c 6821     		movs	r1, #104
 533 000e 0023     		movs	r3, #0
 534              	.LBE89:
 535              	.LBE91:
 536              		.loc 1 67 0
 537 0010 E4B2     		uxtb	r4, r4
 538              	.LBB92:
 539              	.LBB90:
 540              		.loc 1 101 0
 541 0012 FFF7FEFF 		bl	_ZN3I2C9WriteByteEhhh
 542              	.LVL40:
 543              	.LBE90:
 544              	.LBE92:
 545              		.loc 1 67 0
 546 0016 402C     		cmp	r4, #64
 547 0018 F5D1     		bne	.L25
 548              	.LBE86:
 549              		.loc 1 70 0
 550 001a 38BD     		pop	{r3, r4, r5, pc}
 551              		.cfi_endproc
 552              	.LFE21:
 553              		.fnend
 554              		.size	_ZN4RTC15resetEv, .-_ZN4RTC15resetEv
 555              		.section	.text._ZN4RTC1C2EP3I2C,"ax",%progbits
 556              		.align	2
 557              		.p2align 4,,15
 558              		.global	_ZN4RTC1C2EP3I2C
 559              		.thumb
 560              		.thumb_func
 561              		.type	_ZN4RTC1C2EP3I2C, %function
 562              	_ZN4RTC1C2EP3I2C:
 563              		.fnstart
 564              	.LFB8:
 565              		.loc 1 8 0
 566              		.cfi_startproc
 567              		@ args = 0, pretend = 0, frame = 0
 568              		@ frame_needed = 0, uses_anonymous_args = 0
 569              	.LVL41:
 570 0000 10B5     		push	{r4, lr}
ARM GAS  /tmp/cc86YirX.s 			page 11


 571              		.save {r4, lr}
 572              		.cfi_def_cfa_offset 8
 573              		.cfi_offset 4, -8
 574              		.cfi_offset 14, -4
 575              		.loc 1 8 0
 576 0002 0446     		mov	r4, r0
 577              	.LBB93:
 578 0004 0160     		str	r1, [r0]
 579              		.loc 1 9 0
 580 0006 FFF7FEFF 		bl	_ZN4RTC15resetEv
 581              	.LVL42:
 582              	.LBE93:
 583              		.loc 1 10 0
 584 000a 2046     		mov	r0, r4
 585 000c 10BD     		pop	{r4, pc}
 586              		.cfi_endproc
 587              	.LFE8:
 588              		.fnend
 589              		.size	_ZN4RTC1C2EP3I2C, .-_ZN4RTC1C2EP3I2C
 590              		.global	_ZN4RTC1C1EP3I2C
 591              		.thumb_set _ZN4RTC1C1EP3I2C,_ZN4RTC1C2EP3I2C
 592 000e 00BF     		.section	.text._ZN4RTC111createAlarmEcc,"ax",%progbits
 593              		.align	2
 594              		.p2align 4,,15
 595              		.global	_ZN4RTC111createAlarmEcc
 596              		.thumb
 597              		.thumb_func
 598              		.type	_ZN4RTC111createAlarmEcc, %function
 599              	_ZN4RTC111createAlarmEcc:
 600              		.fnstart
 601              	.LFB22:
 602              		.loc 1 72 0
 603              		.cfi_startproc
 604              		@ args = 0, pretend = 0, frame = 0
 605              		@ frame_needed = 0, uses_anonymous_args = 0
 606              	.LVL43:
 607 0000 F8B5     		push	{r3, r4, r5, r6, r7, lr}
 608              		.save {r3, r4, r5, r6, r7, lr}
 609              		.cfi_def_cfa_offset 24
 610              		.cfi_offset 3, -24
 611              		.cfi_offset 4, -20
 612              		.cfi_offset 5, -16
 613              		.cfi_offset 6, -12
 614              		.cfi_offset 7, -8
 615              		.cfi_offset 14, -4
 616              		.loc 1 72 0
 617 0002 0746     		mov	r7, r0
 618              	.LVL44:
 619 0004 1546     		mov	r5, r2
 620              	.LBB94:
 621              	.LBB95:
 622              		.loc 1 14 0
 623 0006 154C     		ldr	r4, .L33
 624              	.LBE95:
 625              	.LBE94:
 626              		.loc 1 74 0
 627 0008 154E     		ldr	r6, .L33+4
ARM GAS  /tmp/cc86YirX.s 			page 12


 628              	.LBB98:
 629              	.LBB96:
 630              		.loc 1 14 0
 631 000a A4FB0123 		umull	r2, r3, r4, r1
 632              	.LVL45:
 633 000e D808     		lsrs	r0, r3, #3
 634              	.LVL46:
 635 0010 00EB8003 		add	r3, r0, r0, lsl #2
 636              	.LBE96:
 637              	.LBE98:
 638              		.loc 1 74 0
 639 0014 3268     		ldr	r2, [r6]
 640              	.LBB99:
 641              	.LBB97:
 642              		.loc 1 14 0
 643 0016 A1EB4301 		sub	r1, r1, r3, lsl #1
 644              	.LVL47:
 645 001a 01EB0013 		add	r3, r1, r0, lsl #4
 646              	.LBE97:
 647              	.LBE99:
 648              		.loc 1 74 0
 649 001e D200     		lsls	r2, r2, #3
 650              	.LBB100:
 651              	.LBB101:
 652              		.loc 1 101 0
 653 0020 DBB2     		uxtb	r3, r3
 654 0022 02F0F802 		and	r2, r2, #248
 655 0026 3868     		ldr	r0, [r7]
 656 0028 6821     		movs	r1, #104
 657 002a FFF7FEFF 		bl	_ZN3I2C9WriteByteEhhh
 658              	.LVL48:
 659              	.LBE101:
 660              	.LBE100:
 661              	.LBB102:
 662              	.LBB103:
 663              		.loc 1 14 0
 664 002e A4FB0531 		umull	r3, r1, r4, r5
 665              	.LBE103:
 666              	.LBE102:
 667              		.loc 1 75 0
 668 0032 3268     		ldr	r2, [r6]
 669              	.LBB106:
 670              	.LBB104:
 671              		.loc 1 14 0
 672 0034 C908     		lsrs	r1, r1, #3
 673 0036 01EB8103 		add	r3, r1, r1, lsl #2
 674 003a A5EB4303 		sub	r3, r5, r3, lsl #1
 675              	.LBE104:
 676              	.LBE106:
 677              		.loc 1 75 0
 678 003e D200     		lsls	r2, r2, #3
 679              	.LBB107:
 680              	.LBB105:
 681              		.loc 1 14 0
 682 0040 03EB0113 		add	r3, r3, r1, lsl #4
 683              	.LBE105:
 684              	.LBE107:
ARM GAS  /tmp/cc86YirX.s 			page 13


 685              		.loc 1 75 0
 686 0044 0132     		adds	r2, r2, #1
 687              	.LBB108:
 688              	.LBB109:
 689              		.loc 1 101 0
 690 0046 DBB2     		uxtb	r3, r3
 691 0048 3868     		ldr	r0, [r7]
 692 004a D2B2     		uxtb	r2, r2
 693 004c 6821     		movs	r1, #104
 694 004e FFF7FEFF 		bl	_ZN3I2C9WriteByteEhhh
 695              	.LVL49:
 696              	.LBE109:
 697              	.LBE108:
 698              		.loc 1 76 0
 699 0052 3368     		ldr	r3, [r6]
 700 0054 0133     		adds	r3, r3, #1
 701 0056 3360     		str	r3, [r6]
 702 0058 F8BD     		pop	{r3, r4, r5, r6, r7, pc}
 703              	.LVL50:
 704              	.L34:
 705 005a 00BF     		.align	2
 706              	.L33:
 707 005c CDCCCCCC 		.word	-858993459
 708 0060 00000000 		.word	.LANCHOR0
 709              		.cfi_endproc
 710              	.LFE22:
 711              		.fnend
 712              		.size	_ZN4RTC111createAlarmEcc, .-_ZN4RTC111createAlarmEcc
 713              		.section	.text._ZN4RTC17readMemEc,"ax",%progbits
 714              		.align	2
 715              		.p2align 4,,15
 716              		.global	_ZN4RTC17readMemEc
 717              		.thumb
 718              		.thumb_func
 719              		.type	_ZN4RTC17readMemEc, %function
 720              	_ZN4RTC17readMemEc:
 721              		.fnstart
 722              	.LFB23:
 723              		.loc 1 79 0
 724              		.cfi_startproc
 725              		@ args = 0, pretend = 0, frame = 0
 726              		@ frame_needed = 0, uses_anonymous_args = 0
 727              		@ link register save eliminated.
 728              	.LVL51:
 729              		.loc 1 79 0
 730 0000 0A46     		mov	r2, r1
 731              	.LVL52:
 732              	.LBB110:
 733              	.LBB111:
 734              		.loc 1 99 0
 735 0002 0068     		ldr	r0, [r0]
 736              	.LVL53:
 737 0004 6821     		movs	r1, #104
 738              	.LVL54:
 739 0006 FFF7FEBF 		b	_ZN3I2C8ReadByteEhh
 740              	.LVL55:
 741              	.LBE111:
ARM GAS  /tmp/cc86YirX.s 			page 14


 742              	.LBE110:
 743              		.cfi_endproc
 744              	.LFE23:
 745              		.cantunwind
 746              		.fnend
 747              		.size	_ZN4RTC17readMemEc, .-_ZN4RTC17readMemEc
 748 000a 00BF     		.section	.text._ZN4RTC111checkAlarmsEv,"ax",%progbits
 749              		.align	2
 750              		.p2align 4,,15
 751              		.global	_ZN4RTC111checkAlarmsEv
 752              		.thumb
 753              		.thumb_func
 754              		.type	_ZN4RTC111checkAlarmsEv, %function
 755              	_ZN4RTC111checkAlarmsEv:
 756              		.fnstart
 757              	.LFB24:
 758              		.loc 1 83 0
 759              		.cfi_startproc
 760              		@ args = 0, pretend = 0, frame = 0
 761              		@ frame_needed = 0, uses_anonymous_args = 0
 762              	.LVL56:
 763 0000 F8B5     		push	{r3, r4, r5, r6, r7, lr}
 764              		.save {r3, r4, r5, r6, r7, lr}
 765              		.cfi_def_cfa_offset 24
 766              		.cfi_offset 3, -24
 767              		.cfi_offset 4, -20
 768              		.cfi_offset 5, -16
 769              		.cfi_offset 6, -12
 770              		.cfi_offset 7, -8
 771              		.cfi_offset 14, -4
 772              	.LBB112:
 773              	.LBB113:
 774              	.LBB114:
 775              	.LBB115:
 776              		.loc 1 99 0
 777 0002 6821     		movs	r1, #104
 778              	.LBE115:
 779              	.LBE114:
 780              	.LBE113:
 781              	.LBE112:
 782              		.loc 1 83 0
 783 0004 0546     		mov	r5, r0
 784              	.LVL57:
 785              	.LBB137:
 786              	.LBB120:
 787              	.LBB118:
 788              	.LBB116:
 789              		.loc 1 99 0
 790 0006 0222     		movs	r2, #2
 791 0008 0068     		ldr	r0, [r0]
 792              	.LVL58:
 793 000a FFF7FEFF 		bl	_ZN3I2C8ReadByteEhh
 794              	.LVL59:
 795              	.LBE116:
 796              	.LBE118:
 797              	.LBE120:
 798              	.LBB121:
ARM GAS  /tmp/cc86YirX.s 			page 15


 799              	.LBB122:
 800              	.LBB123:
 801 000e 6821     		movs	r1, #104
 802              	.LBE123:
 803              	.LBE122:
 804              	.LBE121:
 805              	.LBB128:
 806              	.LBB119:
 807              	.LBB117:
 808 0010 0646     		mov	r6, r0
 809              	.LVL60:
 810              	.LBE117:
 811              	.LBE119:
 812              	.LBE128:
 813              	.LBB129:
 814              	.LBB126:
 815              	.LBB124:
 816 0012 0122     		movs	r2, #1
 817 0014 2868     		ldr	r0, [r5]
 818 0016 FFF7FEFF 		bl	_ZN3I2C8ReadByteEhh
 819              	.LVL61:
 820              	.LBE124:
 821              	.LBE126:
 822              	.LBE129:
 823              		.loc 1 87 0
 824 001a 0824     		movs	r4, #8
 825              	.LBB130:
 826              	.LBB127:
 827              	.LBB125:
 828              		.loc 1 99 0
 829 001c 0746     		mov	r7, r0
 830              	.LVL62:
 831 001e 03E0     		b	.L38
 832              	.LVL63:
 833              	.L40:
 834              	.LBE125:
 835              	.LBE127:
 836              	.LBE130:
 837              		.loc 1 87 0
 838 0020 0234     		adds	r4, r4, #2
 839              	.LVL64:
 840 0022 E4B2     		uxtb	r4, r4
 841              	.LVL65:
 842 0024 402C     		cmp	r4, #64
 843 0026 10D0     		beq	.L43
 844              	.LVL66:
 845              	.L38:
 846              	.LBB131:
 847              	.LBB132:
 848              	.LBB133:
 849              		.loc 1 99 0
 850 0028 2868     		ldr	r0, [r5]
 851 002a 6821     		movs	r1, #104
 852 002c 2246     		mov	r2, r4
 853 002e FFF7FEFF 		bl	_ZN3I2C8ReadByteEhh
 854              	.LVL67:
 855              	.LBE133:
ARM GAS  /tmp/cc86YirX.s 			page 16


 856              	.LBE132:
 857              	.LBE131:
 858              		.loc 1 88 0
 859 0032 8642     		cmp	r6, r0
 860 0034 F4D1     		bne	.L40
 861              	.LVL68:
 862              		.loc 1 89 0
 863 0036 621C     		adds	r2, r4, #1
 864              	.LBB134:
 865              	.LBB135:
 866              	.LBB136:
 867              		.loc 1 99 0
 868 0038 D2B2     		uxtb	r2, r2
 869 003a 2868     		ldr	r0, [r5]
 870 003c 6821     		movs	r1, #104
 871 003e FFF7FEFF 		bl	_ZN3I2C8ReadByteEhh
 872              	.LVL69:
 873              	.LBE136:
 874              	.LBE135:
 875              	.LBE134:
 876              		.loc 1 89 0
 877 0042 8742     		cmp	r7, r0
 878 0044 ECD1     		bne	.L40
 879              		.loc 1 90 0
 880 0046 0120     		movs	r0, #1
 881              	.LBE137:
 882              		.loc 1 95 0
 883 0048 F8BD     		pop	{r3, r4, r5, r6, r7, pc}
 884              	.LVL70:
 885              	.L43:
 886              	.LBB138:
 887              		.loc 1 94 0
 888 004a 0020     		movs	r0, #0
 889 004c F8BD     		pop	{r3, r4, r5, r6, r7, pc}
 890              	.LBE138:
 891              		.cfi_endproc
 892              	.LFE24:
 893              		.fnend
 894              		.size	_ZN4RTC111checkAlarmsEv, .-_ZN4RTC111checkAlarmsEv
 895 004e 00BF     		.section	.text._ZN4RTC14readEh,"ax",%progbits
 896              		.align	2
 897              		.p2align 4,,15
 898              		.global	_ZN4RTC14readEh
 899              		.thumb
 900              		.thumb_func
 901              		.type	_ZN4RTC14readEh, %function
 902              	_ZN4RTC14readEh:
 903              		.fnstart
 904              	.LFB25:
 905              		.loc 1 99 0
 906              		.cfi_startproc
 907              		@ args = 0, pretend = 0, frame = 0
 908              		@ frame_needed = 0, uses_anonymous_args = 0
 909              		@ link register save eliminated.
 910              	.LVL71:
 911              		.loc 1 99 0
 912 0000 0A46     		mov	r2, r1
ARM GAS  /tmp/cc86YirX.s 			page 17


 913 0002 0068     		ldr	r0, [r0]
 914              	.LVL72:
 915 0004 6821     		movs	r1, #104
 916              	.LVL73:
 917 0006 FFF7FEBF 		b	_ZN3I2C8ReadByteEhh
 918              	.LVL74:
 919              		.cfi_endproc
 920              	.LFE25:
 921              		.cantunwind
 922              		.fnend
 923              		.size	_ZN4RTC14readEh, .-_ZN4RTC14readEh
 924 000a 00BF     		.section	.text._ZN4RTC15writeEhh,"ax",%progbits
 925              		.align	2
 926              		.p2align 4,,15
 927              		.global	_ZN4RTC15writeEhh
 928              		.thumb
 929              		.thumb_func
 930              		.type	_ZN4RTC15writeEhh, %function
 931              	_ZN4RTC15writeEhh:
 932              		.fnstart
 933              	.LFB26:
 934              		.loc 1 101 0
 935              		.cfi_startproc
 936              		@ args = 0, pretend = 0, frame = 0
 937              		@ frame_needed = 0, uses_anonymous_args = 0
 938              		@ link register save eliminated.
 939              	.LVL75:
 940              		.loc 1 101 0
 941 0000 1346     		mov	r3, r2
 942 0002 0068     		ldr	r0, [r0]
 943              	.LVL76:
 944 0004 0A46     		mov	r2, r1
 945              	.LVL77:
 946 0006 6821     		movs	r1, #104
 947              	.LVL78:
 948 0008 FFF7FEBF 		b	_ZN3I2C9WriteByteEhhh
 949              	.LVL79:
 950              		.cfi_endproc
 951              	.LFE26:
 952              		.cantunwind
 953              		.fnend
 954              		.size	_ZN4RTC15writeEhh, .-_ZN4RTC15writeEhh
 955              		.section	.text._ZN4RTC14readEhPhh,"ax",%progbits
 956              		.align	2
 957              		.p2align 4,,15
 958              		.global	_ZN4RTC14readEhPhh
 959              		.thumb
 960              		.thumb_func
 961              		.type	_ZN4RTC14readEhPhh, %function
 962              	_ZN4RTC14readEhPhh:
 963              		.fnstart
 964              	.LFB27:
 965              		.loc 1 103 0
 966              		.cfi_startproc
 967              		@ args = 0, pretend = 0, frame = 0
 968              		@ frame_needed = 0, uses_anonymous_args = 0
 969              	.LVL80:
ARM GAS  /tmp/cc86YirX.s 			page 18


 970 0000 10B5     		push	{r4, lr}
 971              		.save {r4, lr}
 972              		.cfi_def_cfa_offset 8
 973              		.cfi_offset 4, -8
 974              		.cfi_offset 14, -4
 975 0002 1446     		mov	r4, r2
 976              		.pad #8
 977 0004 82B0     		sub	sp, sp, #8
 978              		.cfi_def_cfa_offset 16
 979              		.loc 1 104 0
 980 0006 0A46     		mov	r2, r1
 981              	.LVL81:
 982 0008 0068     		ldr	r0, [r0]
 983              	.LVL82:
 984 000a 6821     		movs	r1, #104
 985              	.LVL83:
 986 000c 0093     		str	r3, [sp]
 987 000e 2346     		mov	r3, r4
 988              	.LVL84:
 989 0010 FFF7FEFF 		bl	_ZN3I2C9ReadBytesEhhPhh
 990              	.LVL85:
 991              		.loc 1 105 0
 992 0014 02B0     		add	sp, sp, #8
 993              		.cfi_def_cfa_offset 8
 994              		@ sp needed
 995 0016 10BD     		pop	{r4, pc}
 996              		.cfi_endproc
 997              	.LFE27:
 998              		.fnend
 999              		.size	_ZN4RTC14readEhPhh, .-_ZN4RTC14readEhPhh
 1000              		.global	numAlarms
 1001              		.section	.data.numAlarms,"aw",%progbits
 1002              		.align	2
 1003              		.set	.LANCHOR0,. + 0
 1004              		.type	numAlarms, %object
 1005              		.size	numAlarms, 4
 1006              	numAlarms:
 1007 0000 01000000 		.word	1
 1008              		.text
 1009              	.Letext0:
 1010              		.file 2 "/opt/gcc-arm-none-eabi-4_9-2015q3/arm-none-eabi/include/machine/_default_types.h"
 1011              		.file 3 "/opt/gcc-arm-none-eabi-4_9-2015q3/arm-none-eabi/include/sys/_stdint.h"
 1012              		.file 4 "../../ext/ChibiOS/os/hal/platforms/AT91SAM3S/SAM3S.h"
 1013              		.file 5 "../../ext/ChibiOS/os/hal/platforms/AT91SAM3S/async.h"
 1014              		.file 6 "../../ext/ChibiOS/os/hal/platforms/AT91SAM3S/atmel_twid.h"
 1015              		.file 7 "i2c.h"
 1016              		.file 8 "rtc.h"